
debayer.elf:     file format elf64-littleaarch64


Disassembly of section .text:

0000000000000000 <_vector_table>:
       0:	1400024e 	b	938 <_boot>
	...
     200:	14000061 	b	384 <SynchronousInterruptHandler>
	...
     280:	14000082 	b	488 <IRQInterruptHandler>
	...
     300:	140000a1 	b	584 <FIQInterruptHandler>
	...
     380:	14000099 	b	5e4 <SErrorInterruptHandler>

0000000000000384 <SynchronousInterruptHandler>:
     384:	a9bf07e0 	.word	0xa9bf07e0
     388:	a9bf0fe2 	.word	0xa9bf0fe2
     38c:	a9bf17e4 	.word	0xa9bf17e4
     390:	a9bf1fe6 	.word	0xa9bf1fe6
     394:	a9bf27e8 	.word	0xa9bf27e8
     398:	a9bf2fea 	.word	0xa9bf2fea
     39c:	a9bf37ec 	.word	0xa9bf37ec
     3a0:	a9bf3fee 	.word	0xa9bf3fee
     3a4:	a9bf47f0 	.word	0xa9bf47f0
     3a8:	a9bf4ff2 	.word	0xa9bf4ff2
     3ac:	a9bf7bfd 	.word	0xa9bf7bfd
     3b0:	d53e5200 	.word	0xd53e5200
     3b4:	92661400 	.word	0x92661400
     3b8:	d2a38001 	.word	0xd2a38001
     3bc:	eb01001f 	.word	0xeb01001f
     3c0:	540004a1 	.word	0x540004a1
     3c4:	d53e1141 	.word	0xd53e1141
     3c8:	9275f821 	.word	0x9275f821
     3cc:	d51e1141 	.word	0xd51e1141
     3d0:	d5033fdf 	.word	0xd5033fdf
     3d4:	58002a60 	.word	0x58002a60
     3d8:	39400001 	.word	0x39400001
     3dc:	350000e1 	.word	0x350000e1
     3e0:	52800021 	.word	0x52800021
     3e4:	39000001 	.word	0x39000001
     3e8:	58002a00 	.word	0x58002a00
     3ec:	58002a21 	.word	0x58002a21
     3f0:	f9000020 	.word	0xf9000020
     3f4:	14000019 	.word	0x14000019

00000000000003f8 <storefloat>:
     3f8:	580029c1 	.word	0x580029c1
     3fc:	f9400020 	.word	0xf9400020
     400:	ac810400 	.word	0xac810400
     404:	ac810c02 	.word	0xac810c02
     408:	ac811404 	.word	0xac811404
     40c:	ac811c06 	.word	0xac811c06
     410:	ac812408 	.word	0xac812408
     414:	ac812c0a 	.word	0xac812c0a
     418:	ac81340c 	.word	0xac81340c
     41c:	ac813c0e 	.word	0xac813c0e
     420:	ac814410 	.word	0xac814410
     424:	ac814c12 	.word	0xac814c12
     428:	ac815414 	.word	0xac815414
     42c:	ac815c16 	.word	0xac815c16
     430:	ac816418 	.word	0xac816418
     434:	ac816c1a 	.word	0xac816c1a
     438:	ac81741c 	.word	0xac81741c
     43c:	ac817c1e 	.word	0xac817c1e
     440:	d53b4402 	.word	0xd53b4402
     444:	d53b4423 	.word	0xd53b4423
     448:	a8810c02 	.word	0xa8810c02
     44c:	f9000020 	.word	0xf9000020
     450:	14000002 	.word	0x14000002

0000000000000454 <synchronoushandler>:
     454:	9400091d 	.word	0x9400091d

0000000000000458 <restorecontext>:
     458:	a8c17bfd 	.word	0xa8c17bfd
     45c:	a8c14ff2 	.word	0xa8c14ff2
     460:	a8c147f0 	.word	0xa8c147f0
     464:	a8c13fee 	.word	0xa8c13fee
     468:	a8c137ec 	.word	0xa8c137ec
     46c:	a8c12fea 	.word	0xa8c12fea
     470:	a8c127e8 	.word	0xa8c127e8
     474:	a8c11fe6 	.word	0xa8c11fe6
     478:	a8c117e4 	.word	0xa8c117e4
     47c:	a8c10fe2 	.word	0xa8c10fe2
     480:	a8c107e0 	.word	0xa8c107e0
     484:	d69f03e0 	.word	0xd69f03e0

0000000000000488 <IRQInterruptHandler>:
     488:	a9bf07e0 	.word	0xa9bf07e0
     48c:	a9bf0fe2 	.word	0xa9bf0fe2
     490:	a9bf17e4 	.word	0xa9bf17e4
     494:	a9bf1fe6 	.word	0xa9bf1fe6
     498:	a9bf27e8 	.word	0xa9bf27e8
     49c:	a9bf2fea 	.word	0xa9bf2fea
     4a0:	a9bf37ec 	.word	0xa9bf37ec
     4a4:	a9bf3fee 	.word	0xa9bf3fee
     4a8:	a9bf47f0 	.word	0xa9bf47f0
     4ac:	a9bf4ff2 	.word	0xa9bf4ff2
     4b0:	a9bf7bfd 	.word	0xa9bf7bfd
     4b4:	d53e1140 	.word	0xd53e1140
     4b8:	d53e4021 	.word	0xd53e4021
     4bc:	d53e4002 	.word	0xd53e4002
     4c0:	a9bf07e0 	.word	0xa9bf07e0
     4c4:	f81f0fe2 	.word	0xf81f0fe2
     4c8:	d53e1141 	.word	0xd53e1141
     4cc:	b2760021 	.word	0xb2760021
     4d0:	d51e1141 	.word	0xd51e1141
     4d4:	d5033fdf 	.word	0xd5033fdf
     4d8:	940008f8 	.word	0x940008f8
     4dc:	d53e1140 	.word	0xd53e1140
     4e0:	f2760000 	.word	0xf2760000
     4e4:	540002e1 	.word	0x540002e1
     4e8:	58002241 	.word	0x58002241
     4ec:	f9400020 	.word	0xf9400020
     4f0:	a9ff0c02 	.word	0xa9ff0c02
     4f4:	d51b4402 	.word	0xd51b4402
     4f8:	d51b4423 	.word	0xd51b4423
     4fc:	adff7c1e 	.word	0xadff7c1e
     500:	adff741c 	.word	0xadff741c
     504:	adff6c1a 	.word	0xadff6c1a
     508:	adff6418 	.word	0xadff6418
     50c:	adff5c16 	.word	0xadff5c16
     510:	adff5414 	.word	0xadff5414
     514:	adff4c12 	.word	0xadff4c12
     518:	adff4410 	.word	0xadff4410
     51c:	adff3c0e 	.word	0xadff3c0e
     520:	adff340c 	.word	0xadff340c
     524:	adff2c0a 	.word	0xadff2c0a
     528:	adff2408 	.word	0xadff2408
     52c:	adff1c06 	.word	0xadff1c06
     530:	adff1404 	.word	0xadff1404
     534:	adff0c02 	.word	0xadff0c02
     538:	adff0400 	.word	0xadff0400
     53c:	f9000020 	.word	0xf9000020

0000000000000540 <RestorePrevState>:
     540:	f84107e2 	.word	0xf84107e2
     544:	a8c107e0 	.word	0xa8c107e0
     548:	d51e1140 	.word	0xd51e1140
     54c:	d51e4021 	.word	0xd51e4021
     550:	d51e4002 	.word	0xd51e4002
     554:	a8c17bfd 	.word	0xa8c17bfd
     558:	a8c14ff2 	.word	0xa8c14ff2
     55c:	a8c147f0 	.word	0xa8c147f0
     560:	a8c13fee 	.word	0xa8c13fee
     564:	a8c137ec 	.word	0xa8c137ec
     568:	a8c12fea 	.word	0xa8c12fea
     56c:	a8c127e8 	.word	0xa8c127e8
     570:	a8c11fe6 	.word	0xa8c11fe6
     574:	a8c117e4 	.word	0xa8c117e4
     578:	a8c10fe2 	.word	0xa8c10fe2
     57c:	a8c107e0 	.word	0xa8c107e0
     580:	d69f03e0 	.word	0xd69f03e0

0000000000000584 <FIQInterruptHandler>:
     584:	a9bf07e0 	.word	0xa9bf07e0
     588:	a9bf0fe2 	.word	0xa9bf0fe2
     58c:	a9bf17e4 	.word	0xa9bf17e4
     590:	a9bf1fe6 	.word	0xa9bf1fe6
     594:	a9bf27e8 	.word	0xa9bf27e8
     598:	a9bf2fea 	.word	0xa9bf2fea
     59c:	a9bf37ec 	.word	0xa9bf37ec
     5a0:	a9bf3fee 	.word	0xa9bf3fee
     5a4:	a9bf47f0 	.word	0xa9bf47f0
     5a8:	a9bf4ff2 	.word	0xa9bf4ff2
     5ac:	a9bf7bfd 	.word	0xa9bf7bfd
     5b0:	940008be 	.word	0x940008be
     5b4:	a8c17bfd 	.word	0xa8c17bfd
     5b8:	a8c14ff2 	.word	0xa8c14ff2
     5bc:	a8c147f0 	.word	0xa8c147f0
     5c0:	a8c13fee 	.word	0xa8c13fee
     5c4:	a8c137ec 	.word	0xa8c137ec
     5c8:	a8c12fea 	.word	0xa8c12fea
     5cc:	a8c127e8 	.word	0xa8c127e8
     5d0:	a8c11fe6 	.word	0xa8c11fe6
     5d4:	a8c117e4 	.word	0xa8c117e4
     5d8:	a8c10fe2 	.word	0xa8c10fe2
     5dc:	a8c107e0 	.word	0xa8c107e0
     5e0:	d69f03e0 	.word	0xd69f03e0

00000000000005e4 <SErrorInterruptHandler>:
     5e4:	a9bf07e0 	.word	0xa9bf07e0
     5e8:	a9bf0fe2 	.word	0xa9bf0fe2
     5ec:	a9bf17e4 	.word	0xa9bf17e4
     5f0:	a9bf1fe6 	.word	0xa9bf1fe6
     5f4:	a9bf27e8 	.word	0xa9bf27e8
     5f8:	a9bf2fea 	.word	0xa9bf2fea
     5fc:	a9bf37ec 	.word	0xa9bf37ec
     600:	a9bf3fee 	.word	0xa9bf3fee
     604:	a9bf47f0 	.word	0xa9bf47f0
     608:	a9bf4ff2 	.word	0xa9bf4ff2
     60c:	a9bf7bfd 	.word	0xa9bf7bfd
     610:	940008b2 	.word	0x940008b2
     614:	a8c17bfd 	.word	0xa8c17bfd
     618:	a8c14ff2 	.word	0xa8c14ff2
     61c:	a8c147f0 	.word	0xa8c147f0
     620:	a8c13fee 	.word	0xa8c13fee
     624:	a8c137ec 	.word	0xa8c137ec
     628:	a8c12fea 	.word	0xa8c12fea
     62c:	a8c127e8 	.word	0xa8c127e8
     630:	a8c11fe6 	.word	0xa8c11fe6
     634:	a8c117e4 	.word	0xa8c117e4
     638:	a8c10fe2 	.word	0xa8c10fe2
     63c:	a8c107e0 	.word	0xa8c107e0
     640:	d69f03e0 	.word	0xd69f03e0
	...

0000000000000700 <FPUContext>:
	...

0000000000000910 <FPUContextBase>:
	...

0000000000000918 <FPUStatus>:
	...
     920:	00000918 	.word	0x00000918
     924:	00000000 	.word	0x00000000
     928:	00000700 	.word	0x00000700
     92c:	00000000 	.word	0x00000000
     930:	00000910 	.word	0x00000910
     934:	00000000 	.word	0x00000000

0000000000000938 <_boot>:
     938:	d2800000 	mov	x0, #0x0                   	// #0
     93c:	d2800001 	mov	x1, #0x0                   	// #0
     940:	d2800002 	mov	x2, #0x0                   	// #0
     944:	d2800003 	mov	x3, #0x0                   	// #0
     948:	d2800004 	mov	x4, #0x0                   	// #0
     94c:	d2800005 	mov	x5, #0x0                   	// #0
     950:	d2800006 	mov	x6, #0x0                   	// #0
     954:	d2800007 	mov	x7, #0x0                   	// #0
     958:	d2800008 	mov	x8, #0x0                   	// #0
     95c:	d2800009 	mov	x9, #0x0                   	// #0
     960:	d280000a 	mov	x10, #0x0                   	// #0
     964:	d280000b 	mov	x11, #0x0                   	// #0
     968:	d280000c 	mov	x12, #0x0                   	// #0
     96c:	d280000d 	mov	x13, #0x0                   	// #0
     970:	d280000e 	mov	x14, #0x0                   	// #0
     974:	d280000f 	mov	x15, #0x0                   	// #0
     978:	d2800010 	mov	x16, #0x0                   	// #0
     97c:	d2800011 	mov	x17, #0x0                   	// #0
     980:	d2800012 	mov	x18, #0x0                   	// #0
     984:	d2800013 	mov	x19, #0x0                   	// #0
     988:	d2800014 	mov	x20, #0x0                   	// #0
     98c:	d2800015 	mov	x21, #0x0                   	// #0
     990:	d2800016 	mov	x22, #0x0                   	// #0
     994:	d2800017 	mov	x23, #0x0                   	// #0
     998:	d2800018 	mov	x24, #0x0                   	// #0
     99c:	d2800019 	mov	x25, #0x0                   	// #0
     9a0:	d280001a 	mov	x26, #0x0                   	// #0
     9a4:	d280001b 	mov	x27, #0x0                   	// #0
     9a8:	d280001c 	mov	x28, #0x0                   	// #0
     9ac:	d280001d 	mov	x29, #0x0                   	// #0
     9b0:	d280001e 	mov	x30, #0x0                   	// #0

00000000000009b4 <OKToRun>:
     9b4:	d5384240 	mrs	x0, currentel
     9b8:	f100301f 	cmp	x0, #0xc
     9bc:	54000080 	b.eq	9cc <InitEL3>  // b.none
     9c0:	f100101f 	cmp	x0, #0x4
     9c4:	54000780 	b.eq	ab4 <InitEL1>  // b.none
     9c8:	1400003c 	b	ab8 <error>

00000000000009cc <InitEL3>:
     9cc:	58000c21 	ldr	x1, b50 <invalidateCaches_end+0xc>
     9d0:	d51ec001 	msr	vbar_el3, x1
     9d4:	d53800a0 	mrs	x0, mpidr_el1
     9d8:	92401c00 	and	x0, x0, #0xff
     9dc:	2a0003e0 	mov	w0, w0
     9e0:	18000b42 	ldr	w2, b48 <invalidateCaches_end+0x4>
     9e4:	52800103 	mov	w3, #0x8                   	// #8
     9e8:	1b037c00 	mul	w0, w0, w3
     9ec:	0b000042 	add	w2, w2, w0
     9f0:	f9000041 	str	x1, [x2]
     9f4:	58000b22 	ldr	x2, b58 <invalidateCaches_end+0x14>
     9f8:	9100005f 	mov	sp, x2
     9fc:	d2800000 	mov	x0, #0x0                   	// #0
     a00:	b2760000 	orr	x0, x0, #0x400
     a04:	d51e1140 	msr	cptr_el3, x0
     a08:	d5033fdf 	isb
     a0c:	58000aa0 	ldr	x0, b60 <invalidateCaches_end+0x1c>
     a10:	f900001f 	str	xzr, [x0]
     a14:	52800001 	mov	w1, #0x0                   	// #0
     a18:	32150021 	orr	w1, w1, #0x800
     a1c:	32160021 	orr	w1, w1, #0x400
     a20:	321d0021 	orr	w1, w1, #0x8
     a24:	321e0021 	orr	w1, w1, #0x4
     a28:	321f0021 	orr	w1, w1, #0x2
     a2c:	d51e1101 	msr	scr_el3, x1
     a30:	580009c0 	ldr	x0, b68 <invalidateCaches_end+0x24>
     a34:	b2540000 	orr	x0, x0, #0x100000000000
     a38:	d519f200 	msr	s3_1_c15_c2_0, x0
     a3c:	580009a0 	ldr	x0, b70 <invalidateCaches_end+0x2c>
     a40:	d51be000 	msr	cntfrq_el0, x0
     a44:	d539f220 	mrs	x0, s3_1_c15_c2_1
     a48:	b27a0000 	orr	x0, x0, #0x40
     a4c:	d519f220 	msr	s3_1_c15_c2_1, x0
     a50:	d5033fdf 	isb
     a54:	d50e871f 	tlbi	alle3
     a58:	d508751f 	ic	iallu
     a5c:	94000018 	bl	abc <invalidate_dcaches>
     a60:	d5033f9f 	dsb	sy
     a64:	d5033fdf 	isb
     a68:	58000881 	ldr	x1, b78 <invalidateCaches_end+0x34>
     a6c:	d51e2001 	msr	ttbr0_el3, x1
     a70:	58000881 	ldr	x1, b80 <invalidateCaches_end+0x3c>
     a74:	d51ea201 	msr	mair_el3, x1
     a78:	58000881 	ldr	x1, b88 <invalidateCaches_end+0x44>
     a7c:	d51e2041 	msr	tcr_el3, x1
     a80:	d5033fdf 	isb
     a84:	d53b4221 	mrs	x1, daif
     a88:	9277f821 	and	x1, x1, #0xfffffffffffffeff
     a8c:	d51b4221 	msr	daif, x1
     a90:	d2800001 	mov	x1, #0x0                   	// #0
     a94:	b2740021 	orr	x1, x1, #0x1000
     a98:	b27d0021 	orr	x1, x1, #0x8
     a9c:	b27e0021 	orr	x1, x1, #0x4
     aa0:	b2400021 	orr	x1, x1, #0x1
     aa4:	d51e1001 	msr	sctlr_el3, x1
     aa8:	d5033f9f 	dsb	sy
     aac:	d5033fdf 	isb
     ab0:	14000796 	b	2908 <_startup>

0000000000000ab4 <InitEL1>:
     ab4:	14000001 	b	ab8 <error>

0000000000000ab8 <error>:
     ab8:	14000000 	b	ab8 <error>

0000000000000abc <invalidate_dcaches>:
     abc:	d5033bbf 	dmb	ish
     ac0:	d5390020 	mrs	x0, clidr_el1
     ac4:	53186802 	ubfx	w2, w0, #24, #3
     ac8:	7100005f 	cmp	w2, #0x0
     acc:	540003c0 	b.eq	b44 <invalidateCaches_end>  // b.none
     ad0:	52800001 	mov	w1, #0x0                   	// #0

0000000000000ad4 <invalidateCaches_flush_level>:
     ad4:	0b010423 	add	w3, w1, w1, lsl #1
     ad8:	1ac32403 	lsr	w3, w0, w3
     adc:	53000863 	ubfx	w3, w3, #0, #3
     ae0:	7100087f 	cmp	w3, #0x2
     ae4:	540002ab 	b.lt	b38 <invalidateCaches_next_level>  // b.tstop
     ae8:	531f7824 	lsl	w4, w1, #1
     aec:	d51a0004 	msr	csselr_el1, x4
     af0:	d5033fdf 	isb
     af4:	d5390004 	mrs	x4, ccsidr_el1
     af8:	53000883 	ubfx	w3, w4, #0, #3
     afc:	11000863 	add	w3, w3, #0x2
     b00:	530d6c85 	ubfx	w5, w4, #13, #15
     b04:	53033084 	ubfx	w4, w4, #3, #10
     b08:	5ac01086 	clz	w6, w4

0000000000000b0c <invalidateCaches_flush_set>:
     b0c:	2a0403e8 	mov	w8, w4

0000000000000b10 <invalidateCaches_flush_way>:
     b10:	531f7827 	lsl	w7, w1, #1
     b14:	1ac320a9 	lsl	w9, w5, w3
     b18:	2a0900e7 	orr	w7, w7, w9
     b1c:	1ac62109 	lsl	w9, w8, w6
     b20:	2a0900e7 	orr	w7, w7, w9
     b24:	d5087e47 	dc	cisw, x7
     b28:	71000508 	subs	w8, w8, #0x1
     b2c:	54ffff2a 	b.ge	b10 <invalidateCaches_flush_way>  // b.tcont
     b30:	710004a5 	subs	w5, w5, #0x1
     b34:	54fffeca 	b.ge	b0c <invalidateCaches_flush_set>  // b.tcont

0000000000000b38 <invalidateCaches_next_level>:
     b38:	11000421 	add	w1, w1, #0x1
     b3c:	6b01005f 	cmp	w2, w1
     b40:	54fffcac 	b.gt	ad4 <invalidateCaches_flush_level>

0000000000000b44 <invalidateCaches_end>:
     b44:	d65f03c0 	ret
     b48:	fd5c0040 	.word	0xfd5c0040
	...
     b58:	0002a340 	.word	0x0002a340
     b5c:	00000000 	.word	0x00000000
     b60:	00000918 	.word	0x00000918
     b64:	00000000 	.word	0x00000000
     b68:	080ca000 	.word	0x080ca000
     b6c:	00000000 	.word	0x00000000
     b70:	01fc9f08 	.word	0x01fc9f08
     b74:	00000000 	.word	0x00000000
     b78:	0000f000 	.word	0x0000f000
     b7c:	00000000 	.word	0x00000000
     b80:	0400ff44 	.word	0x0400ff44
     b84:	000000bb 	.word	0x000000bb
     b88:	80823518 	.word	0x80823518
     b8c:	00000000 	.word	0x00000000

0000000000000b90 <deregister_tm_clones>:
     b90:	d0000060 	adrp	x0, e000 <__malloc_av_+0xb8>
     b94:	911dc000 	add	x0, x0, #0x770
     b98:	d0000061 	adrp	x1, e000 <__malloc_av_+0xb8>
     b9c:	911dc021 	add	x1, x1, #0x770
     ba0:	eb00003f 	cmp	x1, x0
     ba4:	54000080 	b.eq	bb4 <deregister_tm_clones+0x24>  // b.none
     ba8:	58000081 	ldr	x1, bb8 <deregister_tm_clones+0x28>
     bac:	b4000041 	cbz	x1, bb4 <deregister_tm_clones+0x24>
     bb0:	d61f0020 	br	x1
     bb4:	d65f03c0 	ret
	...

0000000000000bc0 <register_tm_clones>:
     bc0:	d0000060 	adrp	x0, e000 <__malloc_av_+0xb8>
     bc4:	911dc000 	add	x0, x0, #0x770
     bc8:	d0000061 	adrp	x1, e000 <__malloc_av_+0xb8>
     bcc:	911dc021 	add	x1, x1, #0x770
     bd0:	cb000021 	sub	x1, x1, x0
     bd4:	9343fc21 	asr	x1, x1, #3
     bd8:	8b41fc21 	add	x1, x1, x1, lsr #63
     bdc:	9341fc21 	asr	x1, x1, #1
     be0:	b4000081 	cbz	x1, bf0 <register_tm_clones+0x30>
     be4:	580000a2 	ldr	x2, bf8 <register_tm_clones+0x38>
     be8:	b4000042 	cbz	x2, bf0 <register_tm_clones+0x30>
     bec:	d61f0040 	br	x2
     bf0:	d65f03c0 	ret
     bf4:	d503201f 	nop
	...

0000000000000c00 <__do_global_dtors_aux>:
     c00:	a9be7bfd 	stp	x29, x30, [sp, #-32]!
     c04:	910003fd 	mov	x29, sp
     c08:	f9000bf3 	str	x19, [sp, #16]
     c0c:	d00000b3 	adrp	x19, 16000 <__exidx_end>
     c10:	39420260 	ldrb	w0, [x19, #128]
     c14:	35000120 	cbnz	w0, c38 <__do_global_dtors_aux+0x38>
     c18:	97ffffde 	bl	b90 <deregister_tm_clones>
     c1c:	58000160 	ldr	x0, c48 <__do_global_dtors_aux+0x48>
     c20:	b4000080 	cbz	x0, c30 <__do_global_dtors_aux+0x30>
     c24:	d0000060 	adrp	x0, e000 <__malloc_av_+0xb8>
     c28:	911e0000 	add	x0, x0, #0x780
     c2c:	d503201f 	nop
     c30:	52800020 	mov	w0, #0x1                   	// #1
     c34:	39020260 	strb	w0, [x19, #128]
     c38:	f9400bf3 	ldr	x19, [sp, #16]
     c3c:	a8c27bfd 	ldp	x29, x30, [sp], #32
     c40:	d65f03c0 	ret
     c44:	d503201f 	nop
	...

0000000000000c50 <frame_dummy>:
     c50:	58000180 	ldr	x0, c80 <frame_dummy+0x30>
     c54:	b4000140 	cbz	x0, c7c <frame_dummy+0x2c>
     c58:	a9bf7bfd 	stp	x29, x30, [sp, #-16]!
     c5c:	d00000a1 	adrp	x1, 16000 <__exidx_end>
     c60:	d0000060 	adrp	x0, e000 <__malloc_av_+0xb8>
     c64:	91022021 	add	x1, x1, #0x88
     c68:	910003fd 	mov	x29, sp
     c6c:	911e0000 	add	x0, x0, #0x780
     c70:	d503201f 	nop
     c74:	a8c17bfd 	ldp	x29, x30, [sp], #16
     c78:	17ffffd2 	b	bc0 <register_tm_clones>
     c7c:	17ffffd1 	b	bc0 <register_tm_clones>
	...

0000000000000c88 <_mainCRTStartup>:
     c88:	100007c1 	adr	x1, d80 <_cpu_init_hook+0x4>
     c8c:	528002c0 	mov	w0, #0x16                  	// #22
     c90:	d45e0000 	hlt	#0xf000
     c94:	58000760 	ldr	x0, d80 <_cpu_init_hook+0x4>
     c98:	f9400401 	ldr	x1, [x0, #8]
     c9c:	927cec20 	and	x0, x1, #0xfffffffffffffff0
     ca0:	9100001f 	mov	sp, x0
     ca4:	d280001d 	mov	x29, #0x0                   	// #0
     ca8:	a9bf77fd 	stp	x29, x29, [sp, #-16]!
     cac:	910003fd 	mov	x29, sp
     cb0:	94000033 	bl	d7c <_cpu_init_hook>
     cb4:	580006a0 	ldr	x0, d88 <_cpu_init_hook+0xc>
     cb8:	52800001 	mov	w1, #0x0                   	// #0
     cbc:	580006a2 	ldr	x2, d90 <_cpu_init_hook+0x14>
     cc0:	cb000042 	sub	x2, x2, x0
     cc4:	940007bf 	bl	2bc0 <memset>
     cc8:	940006f6 	bl	28a0 <initialise_monitor_handles>
     ccc:	58000660 	ldr	x0, d98 <_cpu_init_hook+0x1c>
     cd0:	9400076c 	bl	2a80 <atexit>
     cd4:	94000793 	bl	2b20 <__libc_init_array>
     cd8:	10000681 	adr	x1, da8 <_cpu_init_hook+0x2c>
     cdc:	528002a0 	mov	w0, #0x15                  	// #21
     ce0:	d45e0000 	hlt	#0xf000
     ce4:	58000628 	ldr	x8, da8 <_cpu_init_hook+0x2c>
     ce8:	d2800000 	mov	x0, #0x0                   	// #0
     cec:	910003e1 	mov	x1, sp
     cf0:	58000582 	ldr	x2, da0 <_cpu_init_hook+0x24>
     cf4:	f81f8c20 	str	x0, [x1, #-8]!
     cf8:	38401503 	ldrb	w3, [x8], #1
     cfc:	34000243 	cbz	w3, d44 <_mainCRTStartup+0xbc>
     d00:	7100807f 	cmp	w3, #0x20
     d04:	54ffffa0 	b.eq	cf8 <_mainCRTStartup+0x70>  // b.none
     d08:	52800404 	mov	w4, #0x20                  	// #32
     d0c:	71008869 	subs	w9, w3, #0x22
     d10:	d1000508 	sub	x8, x8, #0x1
     d14:	7a451924 	ccmp	w9, #0x5, #0x4, ne  // ne = any
     d18:	1a840064 	csel	w4, w3, w4, eq  // eq = none
     d1c:	9a881508 	cinc	x8, x8, eq  // eq = none
     d20:	f81f8c28 	str	x8, [x1, #-8]!
     d24:	91000400 	add	x0, x0, #0x1
     d28:	38401503 	ldrb	w3, [x8], #1
     d2c:	340000c3 	cbz	w3, d44 <_mainCRTStartup+0xbc>
     d30:	6b03009f 	cmp	w4, w3
     d34:	54ffffa1 	b.ne	d28 <_mainCRTStartup+0xa0>  // b.any
     d38:	52800004 	mov	w4, #0x0                   	// #0
     d3c:	381ff104 	sturb	w4, [x8, #-1]
     d40:	17ffffee 	b	cf8 <_mainCRTStartup+0x70>
     d44:	91000023 	add	x3, x1, #0x0
     d48:	8b204c24 	add	x4, x1, w0, uxtw #3
     d4c:	eb03009f 	cmp	x4, x3
     d50:	540000e3 	b.cc	d6c <_mainCRTStartup+0xe4>  // b.lo, b.ul, b.last
     d54:	f85f8085 	ldur	x5, [x4, #-8]
     d58:	f9400066 	ldr	x6, [x3]
     d5c:	f81f8c86 	str	x6, [x4, #-8]!
     d60:	f8008465 	str	x5, [x3], #8
     d64:	eb03009f 	cmp	x4, x3
     d68:	54ffff68 	b.hi	d54 <_mainCRTStartup+0xcc>  // b.pmore
     d6c:	927cec24 	and	x4, x1, #0xfffffffffffffff0
     d70:	9100009f 	mov	sp, x4
     d74:	94000648 	bl	2694 <main>
     d78:	14000748 	b	2a98 <exit>

0000000000000d7c <_cpu_init_hook>:
     d7c:	d65f03c0 	ret
     d80:	0000d5c8 	.word	0x0000d5c8
     d84:	00000000 	.word	0x00000000
     d88:	00016080 	.word	0x00016080
     d8c:	00000000 	.word	0x00000000
     d90:	00026340 	.word	0x00026340
     d94:	00000000 	.word	0x00000000
     d98:	00002ad0 	.word	0x00002ad0
     d9c:	00000000 	.word	0x00000000
     da0:	0000d5e8 	.word	0x0000d5e8
     da4:	00000000 	.word	0x00000000
     da8:	0000d5f0 	.word	0x0000d5f0
     dac:	00000000 	.word	0x00000000
     db0:	000000ff 	.word	0x000000ff
     db4:	00000000 	.word	0x00000000

0000000000000db8 <debayer_neon64>:
     db8:	d11ec3ff 	sub	sp, sp, #0x7b0
     dbc:	f90017e0 	str	x0, [sp, #40]
     dc0:	b90027e1 	str	w1, [sp, #36]
     dc4:	b90023e2 	str	w2, [sp, #32]
     dc8:	f9000fe3 	str	x3, [sp, #24]
     dcc:	f9000be4 	str	x4, [sp, #16]
     dd0:	f90007e5 	str	x5, [sp, #8]
     dd4:	52800020 	mov	w0, #0x1                   	// #1
     dd8:	b907afe0 	str	w0, [sp, #1964]
     ddc:	140004d4 	b	212c <_HEAP_SIZE+0x12c>
     de0:	b94027e1 	ldr	w1, [sp, #36]
     de4:	b947afe0 	ldr	w0, [sp, #1964]
     de8:	0b000020 	add	w0, w1, w0
     dec:	93407c00 	sxtw	x0, w0
     df0:	f94017e1 	ldr	x1, [sp, #40]
     df4:	8b000020 	add	x0, x1, x0
     df8:	f9034be0 	str	x0, [sp, #1680]
     dfc:	9119c3e0 	add	x0, sp, #0x670
     e00:	f9434be1 	ldr	x1, [sp, #1680]
     e04:	4c408020 	ld2	{v0.16b, v1.16b}, [x1]
     e08:	4c00a000 	st1	{v0.16b, v1.16b}, [x0]
     e0c:	9119c3e0 	add	x0, sp, #0x670
     e10:	4c40a000 	ld1	{v0.16b, v1.16b}, [x0]
     e14:	d10143e0 	sub	x0, sp, #0x50
     e18:	91088000 	add	x0, x0, #0x220
     e1c:	3d800000 	str	q0, [x0]
     e20:	9119c3e0 	add	x0, sp, #0x670
     e24:	4c40a000 	ld1	{v0.16b, v1.16b}, [x0]
     e28:	4ea11c20 	mov	v0.16b, v1.16b
     e2c:	d10143e0 	sub	x0, sp, #0x50
     e30:	91088000 	add	x0, x0, #0x220
     e34:	3d800400 	str	q0, [x0, #16]
     e38:	d10143e0 	sub	x0, sp, #0x50
     e3c:	91088000 	add	x0, x0, #0x220
     e40:	4c40a000 	ld1	{v0.16b, v1.16b}, [x0]
     e44:	d10143e0 	sub	x0, sp, #0x50
     e48:	91020000 	add	x0, x0, #0x80
     e4c:	4c00a000 	st1	{v0.16b, v1.16b}, [x0]
     e50:	b9069bff 	str	wzr, [sp, #1688]
     e54:	b9469be0 	ldr	w0, [sp, #1688]
     e58:	12001c0f 	and	w15, w0, #0xff
     e5c:	b9469be0 	ldr	w0, [sp, #1688]
     e60:	12001c0e 	and	w14, w0, #0xff
     e64:	b9469be0 	ldr	w0, [sp, #1688]
     e68:	12001c0d 	and	w13, w0, #0xff
     e6c:	b9469be0 	ldr	w0, [sp, #1688]
     e70:	12001c0c 	and	w12, w0, #0xff
     e74:	b9469be0 	ldr	w0, [sp, #1688]
     e78:	12001c0b 	and	w11, w0, #0xff
     e7c:	b9469be0 	ldr	w0, [sp, #1688]
     e80:	12001c0a 	and	w10, w0, #0xff
     e84:	b9469be0 	ldr	w0, [sp, #1688]
     e88:	12001c09 	and	w9, w0, #0xff
     e8c:	b9469be0 	ldr	w0, [sp, #1688]
     e90:	12001c08 	and	w8, w0, #0xff
     e94:	b9469be0 	ldr	w0, [sp, #1688]
     e98:	12001c07 	and	w7, w0, #0xff
     e9c:	b9469be0 	ldr	w0, [sp, #1688]
     ea0:	12001c06 	and	w6, w0, #0xff
     ea4:	b9469be0 	ldr	w0, [sp, #1688]
     ea8:	12001c05 	and	w5, w0, #0xff
     eac:	b9469be0 	ldr	w0, [sp, #1688]
     eb0:	12001c04 	and	w4, w0, #0xff
     eb4:	b9469be0 	ldr	w0, [sp, #1688]
     eb8:	12001c03 	and	w3, w0, #0xff
     ebc:	b9469be0 	ldr	w0, [sp, #1688]
     ec0:	12001c02 	and	w2, w0, #0xff
     ec4:	b9469be0 	ldr	w0, [sp, #1688]
     ec8:	12001c01 	and	w1, w0, #0xff
     ecc:	b9469be0 	ldr	w0, [sp, #1688]
     ed0:	12001c00 	and	w0, w0, #0xff
     ed4:	4e010de0 	dup	v0.16b, w15
     ed8:	4e031dc0 	mov	v0.b[1], w14
     edc:	4e051da0 	mov	v0.b[2], w13
     ee0:	4e071d80 	mov	v0.b[3], w12
     ee4:	4e091d60 	mov	v0.b[4], w11
     ee8:	4e0b1d40 	mov	v0.b[5], w10
     eec:	4e0d1d20 	mov	v0.b[6], w9
     ef0:	4e0f1d00 	mov	v0.b[7], w8
     ef4:	4e111ce0 	mov	v0.b[8], w7
     ef8:	4e131cc0 	mov	v0.b[9], w6
     efc:	4e151ca0 	mov	v0.b[10], w5
     f00:	4e171c80 	mov	v0.b[11], w4
     f04:	4e191c60 	mov	v0.b[12], w3
     f08:	4e1b1c40 	mov	v0.b[13], w2
     f0c:	4e1d1c20 	mov	v0.b[14], w1
     f10:	4e1f1c00 	mov	v0.b[15], w0
     f14:	d10143e0 	sub	x0, sp, #0x50
     f18:	91028000 	add	x0, x0, #0xa0
     f1c:	3d800000 	str	q0, [x0]
     f20:	b9069fff 	str	wzr, [sp, #1692]
     f24:	b9469fe0 	ldr	w0, [sp, #1692]
     f28:	12001c0f 	and	w15, w0, #0xff
     f2c:	b9469fe0 	ldr	w0, [sp, #1692]
     f30:	12001c0e 	and	w14, w0, #0xff
     f34:	b9469fe0 	ldr	w0, [sp, #1692]
     f38:	12001c0d 	and	w13, w0, #0xff
     f3c:	b9469fe0 	ldr	w0, [sp, #1692]
     f40:	12001c0c 	and	w12, w0, #0xff
     f44:	b9469fe0 	ldr	w0, [sp, #1692]
     f48:	12001c0b 	and	w11, w0, #0xff
     f4c:	b9469fe0 	ldr	w0, [sp, #1692]
     f50:	12001c0a 	and	w10, w0, #0xff
     f54:	b9469fe0 	ldr	w0, [sp, #1692]
     f58:	12001c09 	and	w9, w0, #0xff
     f5c:	b9469fe0 	ldr	w0, [sp, #1692]
     f60:	12001c08 	and	w8, w0, #0xff
     f64:	b9469fe0 	ldr	w0, [sp, #1692]
     f68:	12001c07 	and	w7, w0, #0xff
     f6c:	b9469fe0 	ldr	w0, [sp, #1692]
     f70:	12001c06 	and	w6, w0, #0xff
     f74:	b9469fe0 	ldr	w0, [sp, #1692]
     f78:	12001c05 	and	w5, w0, #0xff
     f7c:	b9469fe0 	ldr	w0, [sp, #1692]
     f80:	12001c04 	and	w4, w0, #0xff
     f84:	b9469fe0 	ldr	w0, [sp, #1692]
     f88:	12001c03 	and	w3, w0, #0xff
     f8c:	b9469fe0 	ldr	w0, [sp, #1692]
     f90:	12001c02 	and	w2, w0, #0xff
     f94:	b9469fe0 	ldr	w0, [sp, #1692]
     f98:	12001c01 	and	w1, w0, #0xff
     f9c:	b9469fe0 	ldr	w0, [sp, #1692]
     fa0:	12001c00 	and	w0, w0, #0xff
     fa4:	4e010de0 	dup	v0.16b, w15
     fa8:	4e031dc0 	mov	v0.b[1], w14
     fac:	4e051da0 	mov	v0.b[2], w13
     fb0:	4e071d80 	mov	v0.b[3], w12
     fb4:	4e091d60 	mov	v0.b[4], w11
     fb8:	4e0b1d40 	mov	v0.b[5], w10
     fbc:	4e0d1d20 	mov	v0.b[6], w9
     fc0:	4e0f1d00 	mov	v0.b[7], w8
     fc4:	4e111ce0 	mov	v0.b[8], w7
     fc8:	4e131cc0 	mov	v0.b[9], w6
     fcc:	4e151ca0 	mov	v0.b[10], w5
     fd0:	4e171c80 	mov	v0.b[11], w4
     fd4:	4e191c60 	mov	v0.b[12], w3
     fd8:	4e1b1c40 	mov	v0.b[13], w2
     fdc:	4e1d1c20 	mov	v0.b[14], w1
     fe0:	4e1f1c00 	mov	v0.b[15], w0
     fe4:	d10143e0 	sub	x0, sp, #0x50
     fe8:	91028000 	add	x0, x0, #0xa0
     fec:	3d800400 	str	q0, [x0, #16]
     ff0:	52800020 	mov	w0, #0x1                   	// #1
     ff4:	b907abe0 	str	w0, [sp, #1960]
     ff8:	14000445 	b	210c <_HEAP_SIZE+0x10c>
     ffc:	d10143e0 	sub	x0, sp, #0x50
    1000:	91048000 	add	x0, x0, #0x120
    1004:	d10143e1 	sub	x1, sp, #0x50
    1008:	91020021 	add	x1, x1, #0x80
    100c:	4c40a020 	ld1	{v0.16b, v1.16b}, [x1]
    1010:	4c00a000 	st1	{v0.16b, v1.16b}, [x0]
    1014:	b947abe0 	ldr	w0, [sp, #1960]
    1018:	11000401 	add	w1, w0, #0x1
    101c:	b94027e0 	ldr	w0, [sp, #36]
    1020:	1b007c21 	mul	w1, w1, w0
    1024:	b947afe0 	ldr	w0, [sp, #1964]
    1028:	0b000020 	add	w0, w1, w0
    102c:	93407c00 	sxtw	x0, w0
    1030:	f94017e1 	ldr	x1, [sp, #40]
    1034:	8b000020 	add	x0, x1, x0
    1038:	f9016fe0 	str	x0, [sp, #728]
    103c:	d10143e0 	sub	x0, sp, #0x50
    1040:	910c0000 	add	x0, x0, #0x300
    1044:	f9416fe1 	ldr	x1, [sp, #728]
    1048:	4c408020 	ld2	{v0.16b, v1.16b}, [x1]
    104c:	4c00a000 	st1	{v0.16b, v1.16b}, [x0]
    1050:	d10143e0 	sub	x0, sp, #0x50
    1054:	910c0000 	add	x0, x0, #0x300
    1058:	4c40a000 	ld1	{v0.16b, v1.16b}, [x0]
    105c:	d10143e0 	sub	x0, sp, #0x50
    1060:	91088000 	add	x0, x0, #0x220
    1064:	3d800000 	str	q0, [x0]
    1068:	d10143e0 	sub	x0, sp, #0x50
    106c:	910c0000 	add	x0, x0, #0x300
    1070:	4c40a000 	ld1	{v0.16b, v1.16b}, [x0]
    1074:	4ea11c20 	mov	v0.16b, v1.16b
    1078:	d10143e0 	sub	x0, sp, #0x50
    107c:	91088000 	add	x0, x0, #0x220
    1080:	3d800400 	str	q0, [x0, #16]
    1084:	d10143e0 	sub	x0, sp, #0x50
    1088:	91088000 	add	x0, x0, #0x220
    108c:	4c40a000 	ld1	{v0.16b, v1.16b}, [x0]
    1090:	d10143e0 	sub	x0, sp, #0x50
    1094:	91050000 	add	x0, x0, #0x140
    1098:	4c00a000 	st1	{v0.16b, v1.16b}, [x0]
    109c:	d10143e0 	sub	x0, sp, #0x50
    10a0:	91048000 	add	x0, x0, #0x120
    10a4:	3dc00000 	ldr	q0, [x0]
    10a8:	3d81e7e0 	str	q0, [sp, #1936]
    10ac:	d10143e0 	sub	x0, sp, #0x50
    10b0:	91048000 	add	x0, x0, #0x120
    10b4:	3dc00400 	ldr	q0, [x0, #16]
    10b8:	3d81e3e0 	str	q0, [sp, #1920]
    10bc:	d10143e0 	sub	x0, sp, #0x50
    10c0:	91028000 	add	x0, x0, #0xa0
    10c4:	3dc00000 	ldr	q0, [x0]
    10c8:	3d81dfe0 	str	q0, [sp, #1904]
    10cc:	d10143e0 	sub	x0, sp, #0x50
    10d0:	91050000 	add	x0, x0, #0x140
    10d4:	3dc00400 	ldr	q0, [x0, #16]
    10d8:	3d81dbe0 	str	q0, [sp, #1888]
    10dc:	d10143e0 	sub	x0, sp, #0x50
    10e0:	91038000 	add	x0, x0, #0xe0
    10e4:	3dc1e7e0 	ldr	q0, [sp, #1936]
    10e8:	3d800000 	str	q0, [x0]
    10ec:	d10143e0 	sub	x0, sp, #0x50
    10f0:	91038000 	add	x0, x0, #0xe0
    10f4:	3dc00001 	ldr	q1, [x0]
    10f8:	d10143e0 	sub	x0, sp, #0x50
    10fc:	91038000 	add	x0, x0, #0xe0
    1100:	3dc00000 	ldr	q0, [x0]
    1104:	3d80abe1 	str	q1, [sp, #672]
    1108:	3d80bbe0 	str	q0, [sp, #736]
    110c:	3dc0abe1 	ldr	q1, [sp, #672]
    1110:	5280002f 	mov	w15, #0x1                   	// #1
    1114:	52800020 	mov	w0, #0x1                   	// #1
    1118:	11000400 	add	w0, w0, #0x1
    111c:	12001c0e 	and	w14, w0, #0xff
    1120:	52800020 	mov	w0, #0x1                   	// #1
    1124:	11000800 	add	w0, w0, #0x2
    1128:	12001c0d 	and	w13, w0, #0xff
    112c:	52800020 	mov	w0, #0x1                   	// #1
    1130:	11000c00 	add	w0, w0, #0x3
    1134:	12001c0c 	and	w12, w0, #0xff
    1138:	52800020 	mov	w0, #0x1                   	// #1
    113c:	11001000 	add	w0, w0, #0x4
    1140:	12001c0b 	and	w11, w0, #0xff
    1144:	52800020 	mov	w0, #0x1                   	// #1
    1148:	11001400 	add	w0, w0, #0x5
    114c:	12001c0a 	and	w10, w0, #0xff
    1150:	52800020 	mov	w0, #0x1                   	// #1
    1154:	11001800 	add	w0, w0, #0x6
    1158:	12001c09 	and	w9, w0, #0xff
    115c:	52800020 	mov	w0, #0x1                   	// #1
    1160:	11001c00 	add	w0, w0, #0x7
    1164:	12001c08 	and	w8, w0, #0xff
    1168:	52800020 	mov	w0, #0x1                   	// #1
    116c:	11002000 	add	w0, w0, #0x8
    1170:	12001c07 	and	w7, w0, #0xff
    1174:	52800020 	mov	w0, #0x1                   	// #1
    1178:	11002400 	add	w0, w0, #0x9
    117c:	12001c06 	and	w6, w0, #0xff
    1180:	52800020 	mov	w0, #0x1                   	// #1
    1184:	11002800 	add	w0, w0, #0xa
    1188:	12001c05 	and	w5, w0, #0xff
    118c:	52800020 	mov	w0, #0x1                   	// #1
    1190:	11002c00 	add	w0, w0, #0xb
    1194:	12001c04 	and	w4, w0, #0xff
    1198:	52800020 	mov	w0, #0x1                   	// #1
    119c:	11003000 	add	w0, w0, #0xc
    11a0:	12001c03 	and	w3, w0, #0xff
    11a4:	52800020 	mov	w0, #0x1                   	// #1
    11a8:	11003400 	add	w0, w0, #0xd
    11ac:	12001c02 	and	w2, w0, #0xff
    11b0:	52800020 	mov	w0, #0x1                   	// #1
    11b4:	11003800 	add	w0, w0, #0xe
    11b8:	12001c01 	and	w1, w0, #0xff
    11bc:	52800020 	mov	w0, #0x1                   	// #1
    11c0:	11003c00 	add	w0, w0, #0xf
    11c4:	12001c00 	and	w0, w0, #0xff
    11c8:	4e010de0 	dup	v0.16b, w15
    11cc:	4e031dc0 	mov	v0.b[1], w14
    11d0:	4e051da0 	mov	v0.b[2], w13
    11d4:	4e071d80 	mov	v0.b[3], w12
    11d8:	4e091d60 	mov	v0.b[4], w11
    11dc:	4e0b1d40 	mov	v0.b[5], w10
    11e0:	4e0d1d20 	mov	v0.b[6], w9
    11e4:	4e0f1d00 	mov	v0.b[7], w8
    11e8:	4e111ce0 	mov	v0.b[8], w7
    11ec:	4e131cc0 	mov	v0.b[9], w6
    11f0:	4e151ca0 	mov	v0.b[10], w5
    11f4:	4e171c80 	mov	v0.b[11], w4
    11f8:	4e191c60 	mov	v0.b[12], w3
    11fc:	4e1b1c40 	mov	v0.b[13], w2
    1200:	4e1d1c20 	mov	v0.b[14], w1
    1204:	4e1f1c00 	mov	v0.b[15], w0
    1208:	4ea01c03 	mov	v3.16b, v0.16b
    120c:	3dc0bbe0 	ldr	q0, [sp, #736]
    1210:	4f00e7e2 	movi	v2.16b, #0x1f
    1214:	4e221c62 	and	v2.16b, v3.16b, v2.16b
    1218:	6e201c21 	eor	v1.16b, v1.16b, v0.16b
    121c:	6e201c20 	eor	v0.16b, v1.16b, v0.16b
    1220:	6e201c21 	eor	v1.16b, v1.16b, v0.16b
    1224:	4e022000 	tbl	v0.16b, {v0.16b, v1.16b}, v2.16b
    1228:	3d81d7e0 	str	q0, [sp, #1872]
    122c:	b947abe1 	ldr	w1, [sp, #1960]
    1230:	b94027e0 	ldr	w0, [sp, #36]
    1234:	1b007c21 	mul	w1, w1, w0
    1238:	b947afe0 	ldr	w0, [sp, #1964]
    123c:	0b000020 	add	w0, w1, w0
    1240:	93407c00 	sxtw	x0, w0
    1244:	91008000 	add	x0, x0, #0x20
    1248:	f94017e1 	ldr	x1, [sp, #40]
    124c:	8b000020 	add	x0, x1, x0
    1250:	39400000 	ldrb	w0, [x0]
    1254:	390bffe0 	strb	w0, [sp, #767]
    1258:	3dc1d7e0 	ldr	q0, [sp, #1872]
    125c:	3d80a7e0 	str	q0, [sp, #656]
    1260:	394bffe0 	ldrb	w0, [sp, #767]
    1264:	390a5fe0 	strb	w0, [sp, #663]
    1268:	3dc0a7e0 	ldr	q0, [sp, #656]
    126c:	3d81d7e0 	str	q0, [sp, #1872]
    1270:	3dc1dfe0 	ldr	q0, [sp, #1904]
    1274:	3d80c7e0 	str	q0, [sp, #784]
    1278:	3dc1dbe0 	ldr	q0, [sp, #1888]
    127c:	3d80c3e0 	str	q0, [sp, #768]
    1280:	3dc0c7e0 	ldr	q0, [sp, #784]
    1284:	3dc0c3e1 	ldr	q1, [sp, #768]
    1288:	6e210400 	uhadd	v0.16b, v0.16b, v1.16b
    128c:	4ea01c02 	mov	v2.16b, v0.16b
    1290:	d10143e0 	sub	x0, sp, #0x50
    1294:	91038000 	add	x0, x0, #0xe0
    1298:	3dc00000 	ldr	q0, [x0]
    129c:	3d80cfe0 	str	q0, [sp, #816]
    12a0:	3dc1d7e0 	ldr	q0, [sp, #1872]
    12a4:	3d80cbe0 	str	q0, [sp, #800]
    12a8:	3dc0cfe0 	ldr	q0, [sp, #816]
    12ac:	3dc0cbe1 	ldr	q1, [sp, #800]
    12b0:	6e210400 	uhadd	v0.16b, v0.16b, v1.16b
    12b4:	3d80d7e2 	str	q2, [sp, #848]
    12b8:	3d80d3e0 	str	q0, [sp, #832]
    12bc:	3dc0d7e0 	ldr	q0, [sp, #848]
    12c0:	3dc0d3e1 	ldr	q1, [sp, #832]
    12c4:	6e210400 	uhadd	v0.16b, v0.16b, v1.16b
    12c8:	d10143e0 	sub	x0, sp, #0x50
    12cc:	91038000 	add	x0, x0, #0xe0
    12d0:	3d800400 	str	q0, [x0, #16]
    12d4:	d10143e0 	sub	x0, sp, #0x50
    12d8:	91040000 	add	x0, x0, #0x100
    12dc:	3dc1e3e0 	ldr	q0, [sp, #1920]
    12e0:	3d800400 	str	q0, [x0, #16]
    12e4:	d10143e0 	sub	x0, sp, #0x50
    12e8:	91040000 	add	x0, x0, #0x100
    12ec:	3dc00401 	ldr	q1, [x0, #16]
    12f0:	d10143e0 	sub	x0, sp, #0x50
    12f4:	91040000 	add	x0, x0, #0x100
    12f8:	3dc00400 	ldr	q0, [x0, #16]
    12fc:	3d80a3e1 	str	q1, [sp, #640]
    1300:	3d80dbe0 	str	q0, [sp, #864]
    1304:	3dc0a3e1 	ldr	q1, [sp, #640]
    1308:	528000ef 	mov	w15, #0x7                   	// #7
    130c:	528000e0 	mov	w0, #0x7                   	// #7
    1310:	11000400 	add	w0, w0, #0x1
    1314:	12001c0e 	and	w14, w0, #0xff
    1318:	528000e0 	mov	w0, #0x7                   	// #7
    131c:	11000800 	add	w0, w0, #0x2
    1320:	12001c0d 	and	w13, w0, #0xff
    1324:	528000e0 	mov	w0, #0x7                   	// #7
    1328:	11000c00 	add	w0, w0, #0x3
    132c:	12001c0c 	and	w12, w0, #0xff
    1330:	528000e0 	mov	w0, #0x7                   	// #7
    1334:	11001000 	add	w0, w0, #0x4
    1338:	12001c0b 	and	w11, w0, #0xff
    133c:	528000e0 	mov	w0, #0x7                   	// #7
    1340:	11001400 	add	w0, w0, #0x5
    1344:	12001c0a 	and	w10, w0, #0xff
    1348:	528000e0 	mov	w0, #0x7                   	// #7
    134c:	11001800 	add	w0, w0, #0x6
    1350:	12001c09 	and	w9, w0, #0xff
    1354:	528000e0 	mov	w0, #0x7                   	// #7
    1358:	11001c00 	add	w0, w0, #0x7
    135c:	12001c08 	and	w8, w0, #0xff
    1360:	528000e0 	mov	w0, #0x7                   	// #7
    1364:	11002000 	add	w0, w0, #0x8
    1368:	12001c07 	and	w7, w0, #0xff
    136c:	528000e0 	mov	w0, #0x7                   	// #7
    1370:	11002400 	add	w0, w0, #0x9
    1374:	12001c06 	and	w6, w0, #0xff
    1378:	528000e0 	mov	w0, #0x7                   	// #7
    137c:	11002800 	add	w0, w0, #0xa
    1380:	12001c05 	and	w5, w0, #0xff
    1384:	528000e0 	mov	w0, #0x7                   	// #7
    1388:	11002c00 	add	w0, w0, #0xb
    138c:	12001c04 	and	w4, w0, #0xff
    1390:	528000e0 	mov	w0, #0x7                   	// #7
    1394:	11003000 	add	w0, w0, #0xc
    1398:	12001c03 	and	w3, w0, #0xff
    139c:	528000e0 	mov	w0, #0x7                   	// #7
    13a0:	11003400 	add	w0, w0, #0xd
    13a4:	12001c02 	and	w2, w0, #0xff
    13a8:	528000e0 	mov	w0, #0x7                   	// #7
    13ac:	11003800 	add	w0, w0, #0xe
    13b0:	12001c01 	and	w1, w0, #0xff
    13b4:	528000e0 	mov	w0, #0x7                   	// #7
    13b8:	11003c00 	add	w0, w0, #0xf
    13bc:	12001c00 	and	w0, w0, #0xff
    13c0:	4e010de0 	dup	v0.16b, w15
    13c4:	4e031dc0 	mov	v0.b[1], w14
    13c8:	4e051da0 	mov	v0.b[2], w13
    13cc:	4e071d80 	mov	v0.b[3], w12
    13d0:	4e091d60 	mov	v0.b[4], w11
    13d4:	4e0b1d40 	mov	v0.b[5], w10
    13d8:	4e0d1d20 	mov	v0.b[6], w9
    13dc:	4e0f1d00 	mov	v0.b[7], w8
    13e0:	4e111ce0 	mov	v0.b[8], w7
    13e4:	4e131cc0 	mov	v0.b[9], w6
    13e8:	4e151ca0 	mov	v0.b[10], w5
    13ec:	4e171c80 	mov	v0.b[11], w4
    13f0:	4e191c60 	mov	v0.b[12], w3
    13f4:	4e1b1c40 	mov	v0.b[13], w2
    13f8:	4e1d1c20 	mov	v0.b[14], w1
    13fc:	4e1f1c00 	mov	v0.b[15], w0
    1400:	4ea01c03 	mov	v3.16b, v0.16b
    1404:	3dc0dbe0 	ldr	q0, [sp, #864]
    1408:	4f00e7e2 	movi	v2.16b, #0x1f
    140c:	4e221c62 	and	v2.16b, v3.16b, v2.16b
    1410:	6e201c21 	eor	v1.16b, v1.16b, v0.16b
    1414:	6e201c20 	eor	v0.16b, v1.16b, v0.16b
    1418:	6e201c21 	eor	v1.16b, v1.16b, v0.16b
    141c:	4e022000 	tbl	v0.16b, {v0.16b, v1.16b}, v2.16b
    1420:	3d81d3e0 	str	q0, [sp, #1856]
    1424:	b947abe1 	ldr	w1, [sp, #1960]
    1428:	b94027e0 	ldr	w0, [sp, #36]
    142c:	1b007c21 	mul	w1, w1, w0
    1430:	b947afe0 	ldr	w0, [sp, #1964]
    1434:	0b000020 	add	w0, w1, w0
    1438:	93407c00 	sxtw	x0, w0
    143c:	d1000800 	sub	x0, x0, #0x2
    1440:	f94017e1 	ldr	x1, [sp, #40]
    1444:	8b000020 	add	x0, x1, x0
    1448:	39400000 	ldrb	w0, [x0]
    144c:	390dffe0 	strb	w0, [sp, #895]
    1450:	3dc1d3e0 	ldr	q0, [sp, #1856]
    1454:	3d809fe0 	str	q0, [sp, #624]
    1458:	394dffe0 	ldrb	w0, [sp, #895]
    145c:	3909c3e0 	strb	w0, [sp, #624]
    1460:	3dc09fe0 	ldr	q0, [sp, #624]
    1464:	3d81d3e0 	str	q0, [sp, #1856]
    1468:	d10143e0 	sub	x0, sp, #0x50
    146c:	91040000 	add	x0, x0, #0x100
    1470:	3dc00400 	ldr	q0, [x0, #16]
    1474:	3dc1d3e1 	ldr	q1, [sp, #1856]
    1478:	3d80e7e1 	str	q1, [sp, #912]
    147c:	3d80e3e0 	str	q0, [sp, #896]
    1480:	3dc0e7e0 	ldr	q0, [sp, #912]
    1484:	3dc0e3e1 	ldr	q1, [sp, #896]
    1488:	6e210400 	uhadd	v0.16b, v0.16b, v1.16b
    148c:	d10143e0 	sub	x0, sp, #0x50
    1490:	91040000 	add	x0, x0, #0x100
    1494:	3d800000 	str	q0, [x0]
    1498:	d10143e0 	sub	x0, sp, #0x50
    149c:	91028000 	add	x0, x0, #0xa0
    14a0:	3dc00001 	ldr	q1, [x0]
    14a4:	d10143e0 	sub	x0, sp, #0x50
    14a8:	91050000 	add	x0, x0, #0x140
    14ac:	3dc00000 	ldr	q0, [x0]
    14b0:	3d80efe1 	str	q1, [sp, #944]
    14b4:	3d80ebe0 	str	q0, [sp, #928]
    14b8:	3dc0efe0 	ldr	q0, [sp, #944]
    14bc:	3dc0ebe1 	ldr	q1, [sp, #928]
    14c0:	6e210400 	uhadd	v0.16b, v0.16b, v1.16b
    14c4:	3d81cfe0 	str	q0, [sp, #1840]
    14c8:	3dc1cfe0 	ldr	q0, [sp, #1840]
    14cc:	3d809be0 	str	q0, [sp, #608]
    14d0:	3dc1cfe0 	ldr	q0, [sp, #1840]
    14d4:	3d80f3e0 	str	q0, [sp, #960]
    14d8:	3dc09be1 	ldr	q1, [sp, #608]
    14dc:	5280002f 	mov	w15, #0x1                   	// #1
    14e0:	52800020 	mov	w0, #0x1                   	// #1
    14e4:	11000400 	add	w0, w0, #0x1
    14e8:	12001c0e 	and	w14, w0, #0xff
    14ec:	52800020 	mov	w0, #0x1                   	// #1
    14f0:	11000800 	add	w0, w0, #0x2
    14f4:	12001c0d 	and	w13, w0, #0xff
    14f8:	52800020 	mov	w0, #0x1                   	// #1
    14fc:	11000c00 	add	w0, w0, #0x3
    1500:	12001c0c 	and	w12, w0, #0xff
    1504:	52800020 	mov	w0, #0x1                   	// #1
    1508:	11001000 	add	w0, w0, #0x4
    150c:	12001c0b 	and	w11, w0, #0xff
    1510:	52800020 	mov	w0, #0x1                   	// #1
    1514:	11001400 	add	w0, w0, #0x5
    1518:	12001c0a 	and	w10, w0, #0xff
    151c:	52800020 	mov	w0, #0x1                   	// #1
    1520:	11001800 	add	w0, w0, #0x6
    1524:	12001c09 	and	w9, w0, #0xff
    1528:	52800020 	mov	w0, #0x1                   	// #1
    152c:	11001c00 	add	w0, w0, #0x7
    1530:	12001c08 	and	w8, w0, #0xff
    1534:	52800020 	mov	w0, #0x1                   	// #1
    1538:	11002000 	add	w0, w0, #0x8
    153c:	12001c07 	and	w7, w0, #0xff
    1540:	52800020 	mov	w0, #0x1                   	// #1
    1544:	11002400 	add	w0, w0, #0x9
    1548:	12001c06 	and	w6, w0, #0xff
    154c:	52800020 	mov	w0, #0x1                   	// #1
    1550:	11002800 	add	w0, w0, #0xa
    1554:	12001c05 	and	w5, w0, #0xff
    1558:	52800020 	mov	w0, #0x1                   	// #1
    155c:	11002c00 	add	w0, w0, #0xb
    1560:	12001c04 	and	w4, w0, #0xff
    1564:	52800020 	mov	w0, #0x1                   	// #1
    1568:	11003000 	add	w0, w0, #0xc
    156c:	12001c03 	and	w3, w0, #0xff
    1570:	52800020 	mov	w0, #0x1                   	// #1
    1574:	11003400 	add	w0, w0, #0xd
    1578:	12001c02 	and	w2, w0, #0xff
    157c:	52800020 	mov	w0, #0x1                   	// #1
    1580:	11003800 	add	w0, w0, #0xe
    1584:	12001c01 	and	w1, w0, #0xff
    1588:	52800020 	mov	w0, #0x1                   	// #1
    158c:	11003c00 	add	w0, w0, #0xf
    1590:	12001c00 	and	w0, w0, #0xff
    1594:	4e010de0 	dup	v0.16b, w15
    1598:	4e031dc0 	mov	v0.b[1], w14
    159c:	4e051da0 	mov	v0.b[2], w13
    15a0:	4e071d80 	mov	v0.b[3], w12
    15a4:	4e091d60 	mov	v0.b[4], w11
    15a8:	4e0b1d40 	mov	v0.b[5], w10
    15ac:	4e0d1d20 	mov	v0.b[6], w9
    15b0:	4e0f1d00 	mov	v0.b[7], w8
    15b4:	4e111ce0 	mov	v0.b[8], w7
    15b8:	4e131cc0 	mov	v0.b[9], w6
    15bc:	4e151ca0 	mov	v0.b[10], w5
    15c0:	4e171c80 	mov	v0.b[11], w4
    15c4:	4e191c60 	mov	v0.b[12], w3
    15c8:	4e1b1c40 	mov	v0.b[13], w2
    15cc:	4e1d1c20 	mov	v0.b[14], w1
    15d0:	4e1f1c00 	mov	v0.b[15], w0
    15d4:	4ea01c03 	mov	v3.16b, v0.16b
    15d8:	3dc0f3e0 	ldr	q0, [sp, #960]
    15dc:	4f00e7e2 	movi	v2.16b, #0x1f
    15e0:	4e221c62 	and	v2.16b, v3.16b, v2.16b
    15e4:	6e201c21 	eor	v1.16b, v1.16b, v0.16b
    15e8:	6e201c20 	eor	v0.16b, v1.16b, v0.16b
    15ec:	6e201c21 	eor	v1.16b, v1.16b, v0.16b
    15f0:	4e022000 	tbl	v0.16b, {v0.16b, v1.16b}, v2.16b
    15f4:	3d81cbe0 	str	q0, [sp, #1824]
    15f8:	b947abe0 	ldr	w0, [sp, #1960]
    15fc:	51000401 	sub	w1, w0, #0x1
    1600:	b94027e0 	ldr	w0, [sp, #36]
    1604:	1b007c21 	mul	w1, w1, w0
    1608:	b947afe0 	ldr	w0, [sp, #1964]
    160c:	0b000020 	add	w0, w1, w0
    1610:	93407c00 	sxtw	x0, w0
    1614:	91008000 	add	x0, x0, #0x20
    1618:	f94017e1 	ldr	x1, [sp, #40]
    161c:	8b000020 	add	x0, x1, x0
    1620:	39400000 	ldrb	w0, [x0]
    1624:	2a0003e2 	mov	w2, w0
    1628:	b947abe0 	ldr	w0, [sp, #1960]
    162c:	11000401 	add	w1, w0, #0x1
    1630:	b94027e0 	ldr	w0, [sp, #36]
    1634:	1b007c21 	mul	w1, w1, w0
    1638:	b947afe0 	ldr	w0, [sp, #1964]
    163c:	0b000020 	add	w0, w1, w0
    1640:	93407c00 	sxtw	x0, w0
    1644:	91008000 	add	x0, x0, #0x20
    1648:	f94017e1 	ldr	x1, [sp, #40]
    164c:	8b000020 	add	x0, x1, x0
    1650:	39400000 	ldrb	w0, [x0]
    1654:	0b000040 	add	w0, w2, w0
    1658:	13017c00 	asr	w0, w0, #1
    165c:	12001c00 	and	w0, w0, #0xff
    1660:	390f7fe0 	strb	w0, [sp, #991]
    1664:	3dc1cbe0 	ldr	q0, [sp, #1824]
    1668:	3d8097e0 	str	q0, [sp, #592]
    166c:	394f7fe0 	ldrb	w0, [sp, #991]
    1670:	39095fe0 	strb	w0, [sp, #599]
    1674:	3dc097e0 	ldr	q0, [sp, #592]
    1678:	3d81cbe0 	str	q0, [sp, #1824]
    167c:	d10143e0 	sub	x0, sp, #0x50
    1680:	91030000 	add	x0, x0, #0xc0
    1684:	3dc1cfe0 	ldr	q0, [sp, #1840]
    1688:	3d800000 	str	q0, [x0]
    168c:	3dc1cbe0 	ldr	q0, [sp, #1824]
    1690:	3d80ffe0 	str	q0, [sp, #1008]
    1694:	3dc1cfe0 	ldr	q0, [sp, #1840]
    1698:	3d80fbe0 	str	q0, [sp, #992]
    169c:	3dc0ffe0 	ldr	q0, [sp, #1008]
    16a0:	3dc0fbe1 	ldr	q1, [sp, #992]
    16a4:	6e210400 	uhadd	v0.16b, v0.16b, v1.16b
    16a8:	d10143e0 	sub	x0, sp, #0x50
    16ac:	91030000 	add	x0, x0, #0xc0
    16b0:	3d800400 	str	q0, [x0, #16]
    16b4:	b947abe0 	ldr	w0, [sp, #1960]
    16b8:	51000401 	sub	w1, w0, #0x1
    16bc:	b94027e0 	ldr	w0, [sp, #36]
    16c0:	51000800 	sub	w0, w0, #0x2
    16c4:	1b007c21 	mul	w1, w1, w0
    16c8:	b947afe0 	ldr	w0, [sp, #1964]
    16cc:	0b000020 	add	w0, w1, w0
    16d0:	93407c00 	sxtw	x0, w0
    16d4:	d1000400 	sub	x0, x0, #0x1
    16d8:	f9400be1 	ldr	x1, [sp, #16]
    16dc:	8b000020 	add	x0, x1, x0
    16e0:	f90217e0 	str	x0, [sp, #1064]
    16e4:	d10143e0 	sub	x0, sp, #0x50
    16e8:	91080000 	add	x0, x0, #0x200
    16ec:	d10143e1 	sub	x1, sp, #0x50
    16f0:	91038021 	add	x1, x1, #0xe0
    16f4:	4c40a020 	ld1	{v0.16b, v1.16b}, [x1]
    16f8:	4c00a000 	st1	{v0.16b, v1.16b}, [x0]
    16fc:	d10143e0 	sub	x0, sp, #0x50
    1700:	91080000 	add	x0, x0, #0x200
    1704:	3dc00000 	ldr	q0, [x0]
    1708:	4ea01c02 	mov	v2.16b, v0.16b
    170c:	911003e0 	add	x0, sp, #0x400
    1710:	911003e1 	add	x1, sp, #0x400
    1714:	4c40a020 	ld1	{v0.16b, v1.16b}, [x1]
    1718:	4ea21c40 	mov	v0.16b, v2.16b
    171c:	4c00a000 	st1	{v0.16b, v1.16b}, [x0]
    1720:	d10143e0 	sub	x0, sp, #0x50
    1724:	91080000 	add	x0, x0, #0x200
    1728:	3dc00400 	ldr	q0, [x0, #16]
    172c:	4ea01c02 	mov	v2.16b, v0.16b
    1730:	911003e0 	add	x0, sp, #0x400
    1734:	911003e1 	add	x1, sp, #0x400
    1738:	4c40a020 	ld1	{v0.16b, v1.16b}, [x1]
    173c:	4ea21c41 	mov	v1.16b, v2.16b
    1740:	4c00a000 	st1	{v0.16b, v1.16b}, [x0]
    1744:	f94217e0 	ldr	x0, [sp, #1064]
    1748:	911003e1 	add	x1, sp, #0x400
    174c:	4c40a020 	ld1	{v0.16b, v1.16b}, [x1]
    1750:	4c008000 	st2	{v0.16b, v1.16b}, [x0]
    1754:	b947abe0 	ldr	w0, [sp, #1960]
    1758:	51000401 	sub	w1, w0, #0x1
    175c:	b94027e0 	ldr	w0, [sp, #36]
    1760:	51000800 	sub	w0, w0, #0x2
    1764:	1b007c21 	mul	w1, w1, w0
    1768:	b947afe0 	ldr	w0, [sp, #1964]
    176c:	0b000020 	add	w0, w1, w0
    1770:	93407c00 	sxtw	x0, w0
    1774:	d1000400 	sub	x0, x0, #0x1
    1778:	f94007e1 	ldr	x1, [sp, #8]
    177c:	8b000020 	add	x0, x1, x0
    1780:	f9022fe0 	str	x0, [sp, #1112]
    1784:	d10143e0 	sub	x0, sp, #0x50
    1788:	91078000 	add	x0, x0, #0x1e0
    178c:	d10143e1 	sub	x1, sp, #0x50
    1790:	91040021 	add	x1, x1, #0x100
    1794:	4c40a020 	ld1	{v0.16b, v1.16b}, [x1]
    1798:	4c00a000 	st1	{v0.16b, v1.16b}, [x0]
    179c:	d10143e0 	sub	x0, sp, #0x50
    17a0:	91078000 	add	x0, x0, #0x1e0
    17a4:	3dc00000 	ldr	q0, [x0]
    17a8:	4ea01c02 	mov	v2.16b, v0.16b
    17ac:	9110c3e0 	add	x0, sp, #0x430
    17b0:	9110c3e1 	add	x1, sp, #0x430
    17b4:	4c40a020 	ld1	{v0.16b, v1.16b}, [x1]
    17b8:	4ea21c40 	mov	v0.16b, v2.16b
    17bc:	4c00a000 	st1	{v0.16b, v1.16b}, [x0]
    17c0:	d10143e0 	sub	x0, sp, #0x50
    17c4:	91078000 	add	x0, x0, #0x1e0
    17c8:	3dc00400 	ldr	q0, [x0, #16]
    17cc:	4ea01c02 	mov	v2.16b, v0.16b
    17d0:	9110c3e0 	add	x0, sp, #0x430
    17d4:	9110c3e1 	add	x1, sp, #0x430
    17d8:	4c40a020 	ld1	{v0.16b, v1.16b}, [x1]
    17dc:	4ea21c41 	mov	v1.16b, v2.16b
    17e0:	4c00a000 	st1	{v0.16b, v1.16b}, [x0]
    17e4:	f9422fe0 	ldr	x0, [sp, #1112]
    17e8:	9110c3e1 	add	x1, sp, #0x430
    17ec:	4c40a020 	ld1	{v0.16b, v1.16b}, [x1]
    17f0:	4c008000 	st2	{v0.16b, v1.16b}, [x0]
    17f4:	b947abe0 	ldr	w0, [sp, #1960]
    17f8:	51000401 	sub	w1, w0, #0x1
    17fc:	b94027e0 	ldr	w0, [sp, #36]
    1800:	51000800 	sub	w0, w0, #0x2
    1804:	1b007c21 	mul	w1, w1, w0
    1808:	b947afe0 	ldr	w0, [sp, #1964]
    180c:	0b000020 	add	w0, w1, w0
    1810:	93407c00 	sxtw	x0, w0
    1814:	d1000400 	sub	x0, x0, #0x1
    1818:	f9400fe1 	ldr	x1, [sp, #24]
    181c:	8b000020 	add	x0, x1, x0
    1820:	f90247e0 	str	x0, [sp, #1160]
    1824:	d10143e0 	sub	x0, sp, #0x50
    1828:	91070000 	add	x0, x0, #0x1c0
    182c:	d10143e1 	sub	x1, sp, #0x50
    1830:	91030021 	add	x1, x1, #0xc0
    1834:	4c40a020 	ld1	{v0.16b, v1.16b}, [x1]
    1838:	4c00a000 	st1	{v0.16b, v1.16b}, [x0]
    183c:	d10143e0 	sub	x0, sp, #0x50
    1840:	91070000 	add	x0, x0, #0x1c0
    1844:	3dc00000 	ldr	q0, [x0]
    1848:	4ea01c02 	mov	v2.16b, v0.16b
    184c:	911183e0 	add	x0, sp, #0x460
    1850:	911183e1 	add	x1, sp, #0x460
    1854:	4c40a020 	ld1	{v0.16b, v1.16b}, [x1]
    1858:	4ea21c40 	mov	v0.16b, v2.16b
    185c:	4c00a000 	st1	{v0.16b, v1.16b}, [x0]
    1860:	d10143e0 	sub	x0, sp, #0x50
    1864:	91070000 	add	x0, x0, #0x1c0
    1868:	3dc00400 	ldr	q0, [x0, #16]
    186c:	4ea01c02 	mov	v2.16b, v0.16b
    1870:	911183e0 	add	x0, sp, #0x460
    1874:	911183e1 	add	x1, sp, #0x460
    1878:	4c40a020 	ld1	{v0.16b, v1.16b}, [x1]
    187c:	4ea21c41 	mov	v1.16b, v2.16b
    1880:	4c00a000 	st1	{v0.16b, v1.16b}, [x0]
    1884:	f94247e0 	ldr	x0, [sp, #1160]
    1888:	911183e1 	add	x1, sp, #0x460
    188c:	4c40a020 	ld1	{v0.16b, v1.16b}, [x1]
    1890:	4c008000 	st2	{v0.16b, v1.16b}, [x0]
    1894:	b947abe0 	ldr	w0, [sp, #1960]
    1898:	11000801 	add	w1, w0, #0x2
    189c:	b94027e0 	ldr	w0, [sp, #36]
    18a0:	1b007c21 	mul	w1, w1, w0
    18a4:	b947afe0 	ldr	w0, [sp, #1964]
    18a8:	0b000020 	add	w0, w1, w0
    18ac:	93407c00 	sxtw	x0, w0
    18b0:	f94017e1 	ldr	x1, [sp, #40]
    18b4:	8b000020 	add	x0, x1, x0
    18b8:	f9025fe0 	str	x0, [sp, #1208]
    18bc:	911243e0 	add	x0, sp, #0x490
    18c0:	f9425fe1 	ldr	x1, [sp, #1208]
    18c4:	4c408020 	ld2	{v0.16b, v1.16b}, [x1]
    18c8:	4c00a000 	st1	{v0.16b, v1.16b}, [x0]
    18cc:	911243e0 	add	x0, sp, #0x490
    18d0:	4c40a000 	ld1	{v0.16b, v1.16b}, [x0]
    18d4:	d10143e0 	sub	x0, sp, #0x50
    18d8:	91088000 	add	x0, x0, #0x220
    18dc:	3d800000 	str	q0, [x0]
    18e0:	911243e0 	add	x0, sp, #0x490
    18e4:	4c40a000 	ld1	{v0.16b, v1.16b}, [x0]
    18e8:	4ea11c20 	mov	v0.16b, v1.16b
    18ec:	d10143e0 	sub	x0, sp, #0x50
    18f0:	91088000 	add	x0, x0, #0x220
    18f4:	3d800400 	str	q0, [x0, #16]
    18f8:	d10143e0 	sub	x0, sp, #0x50
    18fc:	91088000 	add	x0, x0, #0x220
    1900:	4c40a000 	ld1	{v0.16b, v1.16b}, [x0]
    1904:	d10143e0 	sub	x0, sp, #0x50
    1908:	91088000 	add	x0, x0, #0x220
    190c:	4c00a000 	st1	{v0.16b, v1.16b}, [x0]
    1910:	d10143e0 	sub	x0, sp, #0x50
    1914:	91050000 	add	x0, x0, #0x140
    1918:	3dc00400 	ldr	q0, [x0, #16]
    191c:	3d81c7e0 	str	q0, [sp, #1808]
    1920:	d10143e0 	sub	x0, sp, #0x50
    1924:	91050000 	add	x0, x0, #0x140
    1928:	3dc00000 	ldr	q0, [x0]
    192c:	3d81c3e0 	str	q0, [sp, #1792]
    1930:	d10143e0 	sub	x0, sp, #0x50
    1934:	91048000 	add	x0, x0, #0x120
    1938:	3dc00000 	ldr	q0, [x0]
    193c:	3d81bfe0 	str	q0, [sp, #1776]
    1940:	d10143e0 	sub	x0, sp, #0x50
    1944:	91088000 	add	x0, x0, #0x220
    1948:	3dc00000 	ldr	q0, [x0]
    194c:	3d81bbe0 	str	q0, [sp, #1760]
    1950:	d10143e0 	sub	x0, sp, #0x50
    1954:	91038000 	add	x0, x0, #0xe0
    1958:	3dc1c7e0 	ldr	q0, [sp, #1808]
    195c:	3d800400 	str	q0, [x0, #16]
    1960:	3dc1c7e0 	ldr	q0, [sp, #1808]
    1964:	3d8093e0 	str	q0, [sp, #576]
    1968:	3dc1c7e0 	ldr	q0, [sp, #1808]
    196c:	3d8133e0 	str	q0, [sp, #1216]
    1970:	3dc093e1 	ldr	q1, [sp, #576]
    1974:	528000ef 	mov	w15, #0x7                   	// #7
    1978:	528000e0 	mov	w0, #0x7                   	// #7
    197c:	11000400 	add	w0, w0, #0x1
    1980:	12001c0e 	and	w14, w0, #0xff
    1984:	528000e0 	mov	w0, #0x7                   	// #7
    1988:	11000800 	add	w0, w0, #0x2
    198c:	12001c0d 	and	w13, w0, #0xff
    1990:	528000e0 	mov	w0, #0x7                   	// #7
    1994:	11000c00 	add	w0, w0, #0x3
    1998:	12001c0c 	and	w12, w0, #0xff
    199c:	528000e0 	mov	w0, #0x7                   	// #7
    19a0:	11001000 	add	w0, w0, #0x4
    19a4:	12001c0b 	and	w11, w0, #0xff
    19a8:	528000e0 	mov	w0, #0x7                   	// #7
    19ac:	11001400 	add	w0, w0, #0x5
    19b0:	12001c0a 	and	w10, w0, #0xff
    19b4:	528000e0 	mov	w0, #0x7                   	// #7
    19b8:	11001800 	add	w0, w0, #0x6
    19bc:	12001c09 	and	w9, w0, #0xff
    19c0:	528000e0 	mov	w0, #0x7                   	// #7
    19c4:	11001c00 	add	w0, w0, #0x7
    19c8:	12001c08 	and	w8, w0, #0xff
    19cc:	528000e0 	mov	w0, #0x7                   	// #7
    19d0:	11002000 	add	w0, w0, #0x8
    19d4:	12001c07 	and	w7, w0, #0xff
    19d8:	528000e0 	mov	w0, #0x7                   	// #7
    19dc:	11002400 	add	w0, w0, #0x9
    19e0:	12001c06 	and	w6, w0, #0xff
    19e4:	528000e0 	mov	w0, #0x7                   	// #7
    19e8:	11002800 	add	w0, w0, #0xa
    19ec:	12001c05 	and	w5, w0, #0xff
    19f0:	528000e0 	mov	w0, #0x7                   	// #7
    19f4:	11002c00 	add	w0, w0, #0xb
    19f8:	12001c04 	and	w4, w0, #0xff
    19fc:	528000e0 	mov	w0, #0x7                   	// #7
    1a00:	11003000 	add	w0, w0, #0xc
    1a04:	12001c03 	and	w3, w0, #0xff
    1a08:	528000e0 	mov	w0, #0x7                   	// #7
    1a0c:	11003400 	add	w0, w0, #0xd
    1a10:	12001c02 	and	w2, w0, #0xff
    1a14:	528000e0 	mov	w0, #0x7                   	// #7
    1a18:	11003800 	add	w0, w0, #0xe
    1a1c:	12001c01 	and	w1, w0, #0xff
    1a20:	528000e0 	mov	w0, #0x7                   	// #7
    1a24:	11003c00 	add	w0, w0, #0xf
    1a28:	12001c00 	and	w0, w0, #0xff
    1a2c:	4e010de0 	dup	v0.16b, w15
    1a30:	4e031dc0 	mov	v0.b[1], w14
    1a34:	4e051da0 	mov	v0.b[2], w13
    1a38:	4e071d80 	mov	v0.b[3], w12
    1a3c:	4e091d60 	mov	v0.b[4], w11
    1a40:	4e0b1d40 	mov	v0.b[5], w10
    1a44:	4e0d1d20 	mov	v0.b[6], w9
    1a48:	4e0f1d00 	mov	v0.b[7], w8
    1a4c:	4e111ce0 	mov	v0.b[8], w7
    1a50:	4e131cc0 	mov	v0.b[9], w6
    1a54:	4e151ca0 	mov	v0.b[10], w5
    1a58:	4e171c80 	mov	v0.b[11], w4
    1a5c:	4e191c60 	mov	v0.b[12], w3
    1a60:	4e1b1c40 	mov	v0.b[13], w2
    1a64:	4e1d1c20 	mov	v0.b[14], w1
    1a68:	4e1f1c00 	mov	v0.b[15], w0
    1a6c:	4ea01c03 	mov	v3.16b, v0.16b
    1a70:	3dc133e0 	ldr	q0, [sp, #1216]
    1a74:	4f00e7e2 	movi	v2.16b, #0x1f
    1a78:	4e221c62 	and	v2.16b, v3.16b, v2.16b
    1a7c:	6e201c21 	eor	v1.16b, v1.16b, v0.16b
    1a80:	6e201c20 	eor	v0.16b, v1.16b, v0.16b
    1a84:	6e201c21 	eor	v1.16b, v1.16b, v0.16b
    1a88:	4e022000 	tbl	v0.16b, {v0.16b, v1.16b}, v2.16b
    1a8c:	3d81b7e0 	str	q0, [sp, #1744]
    1a90:	b947abe0 	ldr	w0, [sp, #1960]
    1a94:	11000401 	add	w1, w0, #0x1
    1a98:	b94027e0 	ldr	w0, [sp, #36]
    1a9c:	1b007c21 	mul	w1, w1, w0
    1aa0:	b947afe0 	ldr	w0, [sp, #1964]
    1aa4:	0b000020 	add	w0, w1, w0
    1aa8:	93407c00 	sxtw	x0, w0
    1aac:	d1000800 	sub	x0, x0, #0x2
    1ab0:	f94017e1 	ldr	x1, [sp, #40]
    1ab4:	8b000020 	add	x0, x1, x0
    1ab8:	39400000 	ldrb	w0, [x0]
    1abc:	39137fe0 	strb	w0, [sp, #1247]
    1ac0:	3dc1b7e0 	ldr	q0, [sp, #1744]
    1ac4:	3d808fe0 	str	q0, [sp, #560]
    1ac8:	39537fe0 	ldrb	w0, [sp, #1247]
    1acc:	3908c3e0 	strb	w0, [sp, #560]
    1ad0:	3dc08fe0 	ldr	q0, [sp, #560]
    1ad4:	3d81b7e0 	str	q0, [sp, #1744]
    1ad8:	3dc1bfe0 	ldr	q0, [sp, #1776]
    1adc:	3d813fe0 	str	q0, [sp, #1264]
    1ae0:	3dc1bbe0 	ldr	q0, [sp, #1760]
    1ae4:	3d813be0 	str	q0, [sp, #1248]
    1ae8:	3dc13fe0 	ldr	q0, [sp, #1264]
    1aec:	3dc13be1 	ldr	q1, [sp, #1248]
    1af0:	6e210400 	uhadd	v0.16b, v0.16b, v1.16b
    1af4:	4ea01c02 	mov	v2.16b, v0.16b
    1af8:	3dc1c7e0 	ldr	q0, [sp, #1808]
    1afc:	3d8147e0 	str	q0, [sp, #1296]
    1b00:	3dc1b7e0 	ldr	q0, [sp, #1744]
    1b04:	3d8143e0 	str	q0, [sp, #1280]
    1b08:	3dc147e0 	ldr	q0, [sp, #1296]
    1b0c:	3dc143e1 	ldr	q1, [sp, #1280]
    1b10:	6e210400 	uhadd	v0.16b, v0.16b, v1.16b
    1b14:	3d814fe2 	str	q2, [sp, #1328]
    1b18:	3d814be0 	str	q0, [sp, #1312]
    1b1c:	3dc14fe0 	ldr	q0, [sp, #1328]
    1b20:	3dc14be1 	ldr	q1, [sp, #1312]
    1b24:	6e210400 	uhadd	v0.16b, v0.16b, v1.16b
    1b28:	d10143e0 	sub	x0, sp, #0x50
    1b2c:	91038000 	add	x0, x0, #0xe0
    1b30:	3d800000 	str	q0, [x0]
    1b34:	3dc1c3e0 	ldr	q0, [sp, #1792]
    1b38:	3d808be0 	str	q0, [sp, #544]
    1b3c:	3dc1c3e0 	ldr	q0, [sp, #1792]
    1b40:	3d8153e0 	str	q0, [sp, #1344]
    1b44:	3dc08be1 	ldr	q1, [sp, #544]
    1b48:	5280002f 	mov	w15, #0x1                   	// #1
    1b4c:	52800020 	mov	w0, #0x1                   	// #1
    1b50:	11000400 	add	w0, w0, #0x1
    1b54:	12001c0e 	and	w14, w0, #0xff
    1b58:	52800020 	mov	w0, #0x1                   	// #1
    1b5c:	11000800 	add	w0, w0, #0x2
    1b60:	12001c0d 	and	w13, w0, #0xff
    1b64:	52800020 	mov	w0, #0x1                   	// #1
    1b68:	11000c00 	add	w0, w0, #0x3
    1b6c:	12001c0c 	and	w12, w0, #0xff
    1b70:	52800020 	mov	w0, #0x1                   	// #1
    1b74:	11001000 	add	w0, w0, #0x4
    1b78:	12001c0b 	and	w11, w0, #0xff
    1b7c:	52800020 	mov	w0, #0x1                   	// #1
    1b80:	11001400 	add	w0, w0, #0x5
    1b84:	12001c0a 	and	w10, w0, #0xff
    1b88:	52800020 	mov	w0, #0x1                   	// #1
    1b8c:	11001800 	add	w0, w0, #0x6
    1b90:	12001c09 	and	w9, w0, #0xff
    1b94:	52800020 	mov	w0, #0x1                   	// #1
    1b98:	11001c00 	add	w0, w0, #0x7
    1b9c:	12001c08 	and	w8, w0, #0xff
    1ba0:	52800020 	mov	w0, #0x1                   	// #1
    1ba4:	11002000 	add	w0, w0, #0x8
    1ba8:	12001c07 	and	w7, w0, #0xff
    1bac:	52800020 	mov	w0, #0x1                   	// #1
    1bb0:	11002400 	add	w0, w0, #0x9
    1bb4:	12001c06 	and	w6, w0, #0xff
    1bb8:	52800020 	mov	w0, #0x1                   	// #1
    1bbc:	11002800 	add	w0, w0, #0xa
    1bc0:	12001c05 	and	w5, w0, #0xff
    1bc4:	52800020 	mov	w0, #0x1                   	// #1
    1bc8:	11002c00 	add	w0, w0, #0xb
    1bcc:	12001c04 	and	w4, w0, #0xff
    1bd0:	52800020 	mov	w0, #0x1                   	// #1
    1bd4:	11003000 	add	w0, w0, #0xc
    1bd8:	12001c03 	and	w3, w0, #0xff
    1bdc:	52800020 	mov	w0, #0x1                   	// #1
    1be0:	11003400 	add	w0, w0, #0xd
    1be4:	12001c02 	and	w2, w0, #0xff
    1be8:	52800020 	mov	w0, #0x1                   	// #1
    1bec:	11003800 	add	w0, w0, #0xe
    1bf0:	12001c01 	and	w1, w0, #0xff
    1bf4:	52800020 	mov	w0, #0x1                   	// #1
    1bf8:	11003c00 	add	w0, w0, #0xf
    1bfc:	12001c00 	and	w0, w0, #0xff
    1c00:	4e010de0 	dup	v0.16b, w15
    1c04:	4e031dc0 	mov	v0.b[1], w14
    1c08:	4e051da0 	mov	v0.b[2], w13
    1c0c:	4e071d80 	mov	v0.b[3], w12
    1c10:	4e091d60 	mov	v0.b[4], w11
    1c14:	4e0b1d40 	mov	v0.b[5], w10
    1c18:	4e0d1d20 	mov	v0.b[6], w9
    1c1c:	4e0f1d00 	mov	v0.b[7], w8
    1c20:	4e111ce0 	mov	v0.b[8], w7
    1c24:	4e131cc0 	mov	v0.b[9], w6
    1c28:	4e151ca0 	mov	v0.b[10], w5
    1c2c:	4e171c80 	mov	v0.b[11], w4
    1c30:	4e191c60 	mov	v0.b[12], w3
    1c34:	4e1b1c40 	mov	v0.b[13], w2
    1c38:	4e1d1c20 	mov	v0.b[14], w1
    1c3c:	4e1f1c00 	mov	v0.b[15], w0
    1c40:	4ea01c03 	mov	v3.16b, v0.16b
    1c44:	3dc153e0 	ldr	q0, [sp, #1344]
    1c48:	4f00e7e2 	movi	v2.16b, #0x1f
    1c4c:	4e221c62 	and	v2.16b, v3.16b, v2.16b
    1c50:	6e201c21 	eor	v1.16b, v1.16b, v0.16b
    1c54:	6e201c20 	eor	v0.16b, v1.16b, v0.16b
    1c58:	6e201c21 	eor	v1.16b, v1.16b, v0.16b
    1c5c:	4e022000 	tbl	v0.16b, {v0.16b, v1.16b}, v2.16b
    1c60:	3d81b3e0 	str	q0, [sp, #1728]
    1c64:	b947abe0 	ldr	w0, [sp, #1960]
    1c68:	11000401 	add	w1, w0, #0x1
    1c6c:	b94027e0 	ldr	w0, [sp, #36]
    1c70:	1b007c21 	mul	w1, w1, w0
    1c74:	b947afe0 	ldr	w0, [sp, #1964]
    1c78:	0b000020 	add	w0, w1, w0
    1c7c:	93407c00 	sxtw	x0, w0
    1c80:	91008000 	add	x0, x0, #0x20
    1c84:	f94017e1 	ldr	x1, [sp, #40]
    1c88:	8b000020 	add	x0, x1, x0
    1c8c:	39400000 	ldrb	w0, [x0]
    1c90:	39157fe0 	strb	w0, [sp, #1375]
    1c94:	3dc1b3e0 	ldr	q0, [sp, #1728]
    1c98:	3d8087e0 	str	q0, [sp, #528]
    1c9c:	39557fe0 	ldrb	w0, [sp, #1375]
    1ca0:	39085fe0 	strb	w0, [sp, #535]
    1ca4:	3dc087e0 	ldr	q0, [sp, #528]
    1ca8:	3d81b3e0 	str	q0, [sp, #1728]
    1cac:	d10143e0 	sub	x0, sp, #0x50
    1cb0:	91030000 	add	x0, x0, #0xc0
    1cb4:	3dc1c3e0 	ldr	q0, [sp, #1792]
    1cb8:	3d800000 	str	q0, [x0]
    1cbc:	3dc1b3e0 	ldr	q0, [sp, #1728]
    1cc0:	3d815fe0 	str	q0, [sp, #1392]
    1cc4:	3dc1c3e0 	ldr	q0, [sp, #1792]
    1cc8:	3d815be0 	str	q0, [sp, #1376]
    1ccc:	3dc15fe0 	ldr	q0, [sp, #1392]
    1cd0:	3dc15be1 	ldr	q1, [sp, #1376]
    1cd4:	6e210400 	uhadd	v0.16b, v0.16b, v1.16b
    1cd8:	d10143e0 	sub	x0, sp, #0x50
    1cdc:	91030000 	add	x0, x0, #0xc0
    1ce0:	3d800400 	str	q0, [x0, #16]
    1ce4:	d10143e0 	sub	x0, sp, #0x50
    1ce8:	91048000 	add	x0, x0, #0x120
    1cec:	3dc00401 	ldr	q1, [x0, #16]
    1cf0:	d10143e0 	sub	x0, sp, #0x50
    1cf4:	91088000 	add	x0, x0, #0x220
    1cf8:	3dc00000 	ldr	q0, [x0]
    1cfc:	3d8167e1 	str	q1, [sp, #1424]
    1d00:	3d8163e0 	str	q0, [sp, #1408]
    1d04:	3dc167e0 	ldr	q0, [sp, #1424]
    1d08:	3dc163e1 	ldr	q1, [sp, #1408]
    1d0c:	6e210400 	uhadd	v0.16b, v0.16b, v1.16b
    1d10:	3d81afe0 	str	q0, [sp, #1712]
    1d14:	3dc1afe0 	ldr	q0, [sp, #1712]
    1d18:	3d8083e0 	str	q0, [sp, #512]
    1d1c:	3dc1afe0 	ldr	q0, [sp, #1712]
    1d20:	3d816be0 	str	q0, [sp, #1440]
    1d24:	3dc083e1 	ldr	q1, [sp, #512]
    1d28:	528000ef 	mov	w15, #0x7                   	// #7
    1d2c:	528000e0 	mov	w0, #0x7                   	// #7
    1d30:	11000400 	add	w0, w0, #0x1
    1d34:	12001c0e 	and	w14, w0, #0xff
    1d38:	528000e0 	mov	w0, #0x7                   	// #7
    1d3c:	11000800 	add	w0, w0, #0x2
    1d40:	12001c0d 	and	w13, w0, #0xff
    1d44:	528000e0 	mov	w0, #0x7                   	// #7
    1d48:	11000c00 	add	w0, w0, #0x3
    1d4c:	12001c0c 	and	w12, w0, #0xff
    1d50:	528000e0 	mov	w0, #0x7                   	// #7
    1d54:	11001000 	add	w0, w0, #0x4
    1d58:	12001c0b 	and	w11, w0, #0xff
    1d5c:	528000e0 	mov	w0, #0x7                   	// #7
    1d60:	11001400 	add	w0, w0, #0x5
    1d64:	12001c0a 	and	w10, w0, #0xff
    1d68:	528000e0 	mov	w0, #0x7                   	// #7
    1d6c:	11001800 	add	w0, w0, #0x6
    1d70:	12001c09 	and	w9, w0, #0xff
    1d74:	528000e0 	mov	w0, #0x7                   	// #7
    1d78:	11001c00 	add	w0, w0, #0x7
    1d7c:	12001c08 	and	w8, w0, #0xff
    1d80:	528000e0 	mov	w0, #0x7                   	// #7
    1d84:	11002000 	add	w0, w0, #0x8
    1d88:	12001c07 	and	w7, w0, #0xff
    1d8c:	528000e0 	mov	w0, #0x7                   	// #7
    1d90:	11002400 	add	w0, w0, #0x9
    1d94:	12001c06 	and	w6, w0, #0xff
    1d98:	528000e0 	mov	w0, #0x7                   	// #7
    1d9c:	11002800 	add	w0, w0, #0xa
    1da0:	12001c05 	and	w5, w0, #0xff
    1da4:	528000e0 	mov	w0, #0x7                   	// #7
    1da8:	11002c00 	add	w0, w0, #0xb
    1dac:	12001c04 	and	w4, w0, #0xff
    1db0:	528000e0 	mov	w0, #0x7                   	// #7
    1db4:	11003000 	add	w0, w0, #0xc
    1db8:	12001c03 	and	w3, w0, #0xff
    1dbc:	528000e0 	mov	w0, #0x7                   	// #7
    1dc0:	11003400 	add	w0, w0, #0xd
    1dc4:	12001c02 	and	w2, w0, #0xff
    1dc8:	528000e0 	mov	w0, #0x7                   	// #7
    1dcc:	11003800 	add	w0, w0, #0xe
    1dd0:	12001c01 	and	w1, w0, #0xff
    1dd4:	528000e0 	mov	w0, #0x7                   	// #7
    1dd8:	11003c00 	add	w0, w0, #0xf
    1ddc:	12001c00 	and	w0, w0, #0xff
    1de0:	4e010de0 	dup	v0.16b, w15
    1de4:	4e031dc0 	mov	v0.b[1], w14
    1de8:	4e051da0 	mov	v0.b[2], w13
    1dec:	4e071d80 	mov	v0.b[3], w12
    1df0:	4e091d60 	mov	v0.b[4], w11
    1df4:	4e0b1d40 	mov	v0.b[5], w10
    1df8:	4e0d1d20 	mov	v0.b[6], w9
    1dfc:	4e0f1d00 	mov	v0.b[7], w8
    1e00:	4e111ce0 	mov	v0.b[8], w7
    1e04:	4e131cc0 	mov	v0.b[9], w6
    1e08:	4e151ca0 	mov	v0.b[10], w5
    1e0c:	4e171c80 	mov	v0.b[11], w4
    1e10:	4e191c60 	mov	v0.b[12], w3
    1e14:	4e1b1c40 	mov	v0.b[13], w2
    1e18:	4e1d1c20 	mov	v0.b[14], w1
    1e1c:	4e1f1c00 	mov	v0.b[15], w0
    1e20:	4ea01c03 	mov	v3.16b, v0.16b
    1e24:	3dc16be0 	ldr	q0, [sp, #1440]
    1e28:	4f00e7e2 	movi	v2.16b, #0x1f
    1e2c:	4e221c62 	and	v2.16b, v3.16b, v2.16b
    1e30:	6e201c21 	eor	v1.16b, v1.16b, v0.16b
    1e34:	6e201c20 	eor	v0.16b, v1.16b, v0.16b
    1e38:	6e201c21 	eor	v1.16b, v1.16b, v0.16b
    1e3c:	4e022000 	tbl	v0.16b, {v0.16b, v1.16b}, v2.16b
    1e40:	3d81abe0 	str	q0, [sp, #1696]
    1e44:	b947abe1 	ldr	w1, [sp, #1960]
    1e48:	b94027e0 	ldr	w0, [sp, #36]
    1e4c:	1b007c21 	mul	w1, w1, w0
    1e50:	b947afe0 	ldr	w0, [sp, #1964]
    1e54:	0b000020 	add	w0, w1, w0
    1e58:	93407c00 	sxtw	x0, w0
    1e5c:	d1000800 	sub	x0, x0, #0x2
    1e60:	f94017e1 	ldr	x1, [sp, #40]
    1e64:	8b000020 	add	x0, x1, x0
    1e68:	39400000 	ldrb	w0, [x0]
    1e6c:	2a0003e2 	mov	w2, w0
    1e70:	b947abe0 	ldr	w0, [sp, #1960]
    1e74:	11000801 	add	w1, w0, #0x2
    1e78:	b94027e0 	ldr	w0, [sp, #36]
    1e7c:	1b007c21 	mul	w1, w1, w0
    1e80:	b947afe0 	ldr	w0, [sp, #1964]
    1e84:	0b000020 	add	w0, w1, w0
    1e88:	93407c00 	sxtw	x0, w0
    1e8c:	d1000800 	sub	x0, x0, #0x2
    1e90:	f94017e1 	ldr	x1, [sp, #40]
    1e94:	8b000020 	add	x0, x1, x0
    1e98:	39400000 	ldrb	w0, [x0]
    1e9c:	0b000040 	add	w0, w2, w0
    1ea0:	13017c00 	asr	w0, w0, #1
    1ea4:	12001c00 	and	w0, w0, #0xff
    1ea8:	3916ffe0 	strb	w0, [sp, #1471]
    1eac:	3dc1abe0 	ldr	q0, [sp, #1696]
    1eb0:	3d807fe0 	str	q0, [sp, #496]
    1eb4:	3956ffe0 	ldrb	w0, [sp, #1471]
    1eb8:	3907c3e0 	strb	w0, [sp, #496]
    1ebc:	3dc07fe0 	ldr	q0, [sp, #496]
    1ec0:	3d81abe0 	str	q0, [sp, #1696]
    1ec4:	3dc1abe0 	ldr	q0, [sp, #1696]
    1ec8:	3d8177e0 	str	q0, [sp, #1488]
    1ecc:	3dc1afe0 	ldr	q0, [sp, #1712]
    1ed0:	3d8173e0 	str	q0, [sp, #1472]
    1ed4:	3dc177e0 	ldr	q0, [sp, #1488]
    1ed8:	3dc173e1 	ldr	q1, [sp, #1472]
    1edc:	6e210400 	uhadd	v0.16b, v0.16b, v1.16b
    1ee0:	d10143e0 	sub	x0, sp, #0x50
    1ee4:	91040000 	add	x0, x0, #0x100
    1ee8:	3d800000 	str	q0, [x0]
    1eec:	d10143e0 	sub	x0, sp, #0x50
    1ef0:	91040000 	add	x0, x0, #0x100
    1ef4:	3dc1afe0 	ldr	q0, [sp, #1712]
    1ef8:	3d800400 	str	q0, [x0, #16]
    1efc:	b94027e0 	ldr	w0, [sp, #36]
    1f00:	51000801 	sub	w1, w0, #0x2
    1f04:	b947abe0 	ldr	w0, [sp, #1960]
    1f08:	1b007c21 	mul	w1, w1, w0
    1f0c:	b947afe0 	ldr	w0, [sp, #1964]
    1f10:	0b000020 	add	w0, w1, w0
    1f14:	93407c00 	sxtw	x0, w0
    1f18:	d1000400 	sub	x0, x0, #0x1
    1f1c:	f9400be1 	ldr	x1, [sp, #16]
    1f20:	8b000020 	add	x0, x1, x0
    1f24:	f90307e0 	str	x0, [sp, #1544]
    1f28:	d10143e0 	sub	x0, sp, #0x50
    1f2c:	91068000 	add	x0, x0, #0x1a0
    1f30:	d10143e1 	sub	x1, sp, #0x50
    1f34:	91038021 	add	x1, x1, #0xe0
    1f38:	4c40a020 	ld1	{v0.16b, v1.16b}, [x1]
    1f3c:	4c00a000 	st1	{v0.16b, v1.16b}, [x0]
    1f40:	d10143e0 	sub	x0, sp, #0x50
    1f44:	91068000 	add	x0, x0, #0x1a0
    1f48:	3dc00000 	ldr	q0, [x0]
    1f4c:	4ea01c02 	mov	v2.16b, v0.16b
    1f50:	911783e0 	add	x0, sp, #0x5e0
    1f54:	911783e1 	add	x1, sp, #0x5e0
    1f58:	4c40a020 	ld1	{v0.16b, v1.16b}, [x1]
    1f5c:	4ea21c40 	mov	v0.16b, v2.16b
    1f60:	4c00a000 	st1	{v0.16b, v1.16b}, [x0]
    1f64:	d10143e0 	sub	x0, sp, #0x50
    1f68:	91068000 	add	x0, x0, #0x1a0
    1f6c:	3dc00400 	ldr	q0, [x0, #16]
    1f70:	4ea01c02 	mov	v2.16b, v0.16b
    1f74:	911783e0 	add	x0, sp, #0x5e0
    1f78:	911783e1 	add	x1, sp, #0x5e0
    1f7c:	4c40a020 	ld1	{v0.16b, v1.16b}, [x1]
    1f80:	4ea21c41 	mov	v1.16b, v2.16b
    1f84:	4c00a000 	st1	{v0.16b, v1.16b}, [x0]
    1f88:	f94307e0 	ldr	x0, [sp, #1544]
    1f8c:	911783e1 	add	x1, sp, #0x5e0
    1f90:	4c40a020 	ld1	{v0.16b, v1.16b}, [x1]
    1f94:	4c008000 	st2	{v0.16b, v1.16b}, [x0]
    1f98:	b94027e0 	ldr	w0, [sp, #36]
    1f9c:	51000801 	sub	w1, w0, #0x2
    1fa0:	b947abe0 	ldr	w0, [sp, #1960]
    1fa4:	1b007c21 	mul	w1, w1, w0
    1fa8:	b947afe0 	ldr	w0, [sp, #1964]
    1fac:	0b000020 	add	w0, w1, w0
    1fb0:	93407c00 	sxtw	x0, w0
    1fb4:	d1000400 	sub	x0, x0, #0x1
    1fb8:	f94007e1 	ldr	x1, [sp, #8]
    1fbc:	8b000020 	add	x0, x1, x0
    1fc0:	f9031fe0 	str	x0, [sp, #1592]
    1fc4:	d10143e0 	sub	x0, sp, #0x50
    1fc8:	91060000 	add	x0, x0, #0x180
    1fcc:	d10143e1 	sub	x1, sp, #0x50
    1fd0:	91040021 	add	x1, x1, #0x100
    1fd4:	4c40a020 	ld1	{v0.16b, v1.16b}, [x1]
    1fd8:	4c00a000 	st1	{v0.16b, v1.16b}, [x0]
    1fdc:	d10143e0 	sub	x0, sp, #0x50
    1fe0:	91060000 	add	x0, x0, #0x180
    1fe4:	3dc00000 	ldr	q0, [x0]
    1fe8:	4ea01c02 	mov	v2.16b, v0.16b
    1fec:	911843e0 	add	x0, sp, #0x610
    1ff0:	911843e1 	add	x1, sp, #0x610
    1ff4:	4c40a020 	ld1	{v0.16b, v1.16b}, [x1]
    1ff8:	4ea21c40 	mov	v0.16b, v2.16b
    1ffc:	4c00a000 	st1	{v0.16b, v1.16b}, [x0]
    2000:	d10143e0 	sub	x0, sp, #0x50
    2004:	91060000 	add	x0, x0, #0x180
    2008:	3dc00400 	ldr	q0, [x0, #16]
    200c:	4ea01c02 	mov	v2.16b, v0.16b
    2010:	911843e0 	add	x0, sp, #0x610
    2014:	911843e1 	add	x1, sp, #0x610
    2018:	4c40a020 	ld1	{v0.16b, v1.16b}, [x1]
    201c:	4ea21c41 	mov	v1.16b, v2.16b
    2020:	4c00a000 	st1	{v0.16b, v1.16b}, [x0]
    2024:	f9431fe0 	ldr	x0, [sp, #1592]
    2028:	911843e1 	add	x1, sp, #0x610
    202c:	4c40a020 	ld1	{v0.16b, v1.16b}, [x1]
    2030:	4c008000 	st2	{v0.16b, v1.16b}, [x0]
    2034:	b94027e0 	ldr	w0, [sp, #36]
    2038:	51000801 	sub	w1, w0, #0x2
    203c:	b947abe0 	ldr	w0, [sp, #1960]
    2040:	1b007c21 	mul	w1, w1, w0
    2044:	b947afe0 	ldr	w0, [sp, #1964]
    2048:	0b000020 	add	w0, w1, w0
    204c:	93407c00 	sxtw	x0, w0
    2050:	d1000400 	sub	x0, x0, #0x1
    2054:	f9400fe1 	ldr	x1, [sp, #24]
    2058:	8b000020 	add	x0, x1, x0
    205c:	f90337e0 	str	x0, [sp, #1640]
    2060:	d10143e0 	sub	x0, sp, #0x50
    2064:	91058000 	add	x0, x0, #0x160
    2068:	d10143e1 	sub	x1, sp, #0x50
    206c:	91030021 	add	x1, x1, #0xc0
    2070:	4c40a020 	ld1	{v0.16b, v1.16b}, [x1]
    2074:	4c00a000 	st1	{v0.16b, v1.16b}, [x0]
    2078:	d10143e0 	sub	x0, sp, #0x50
    207c:	91058000 	add	x0, x0, #0x160
    2080:	3dc00000 	ldr	q0, [x0]
    2084:	4ea01c02 	mov	v2.16b, v0.16b
    2088:	911903e0 	add	x0, sp, #0x640
    208c:	911903e1 	add	x1, sp, #0x640
    2090:	4c40a020 	ld1	{v0.16b, v1.16b}, [x1]
    2094:	4ea21c40 	mov	v0.16b, v2.16b
    2098:	4c00a000 	st1	{v0.16b, v1.16b}, [x0]
    209c:	d10143e0 	sub	x0, sp, #0x50
    20a0:	91058000 	add	x0, x0, #0x160
    20a4:	3dc00400 	ldr	q0, [x0, #16]
    20a8:	4ea01c02 	mov	v2.16b, v0.16b
    20ac:	911903e0 	add	x0, sp, #0x640
    20b0:	911903e1 	add	x1, sp, #0x640
    20b4:	4c40a020 	ld1	{v0.16b, v1.16b}, [x1]
    20b8:	4ea21c41 	mov	v1.16b, v2.16b
    20bc:	4c00a000 	st1	{v0.16b, v1.16b}, [x0]
    20c0:	f94337e0 	ldr	x0, [sp, #1640]
    20c4:	911903e1 	add	x1, sp, #0x640
    20c8:	4c40a020 	ld1	{v0.16b, v1.16b}, [x1]
    20cc:	4c008000 	st2	{v0.16b, v1.16b}, [x0]
    20d0:	d10143e0 	sub	x0, sp, #0x50
    20d4:	91020000 	add	x0, x0, #0x80
    20d8:	d10143e1 	sub	x1, sp, #0x50
    20dc:	91088021 	add	x1, x1, #0x220
    20e0:	4c40a020 	ld1	{v0.16b, v1.16b}, [x1]
    20e4:	4c00a000 	st1	{v0.16b, v1.16b}, [x0]
    20e8:	d10143e0 	sub	x0, sp, #0x50
    20ec:	91028000 	add	x0, x0, #0xa0
    20f0:	d10143e1 	sub	x1, sp, #0x50
    20f4:	91050021 	add	x1, x1, #0x140
    20f8:	4c40a020 	ld1	{v0.16b, v1.16b}, [x1]
    20fc:	4c00a000 	st1	{v0.16b, v1.16b}, [x0]
    2100:	b947abe0 	ldr	w0, [sp, #1960]
    2104:	11000800 	add	w0, w0, #0x2
    2108:	b907abe0 	str	w0, [sp, #1960]
    210c:	b94023e0 	ldr	w0, [sp, #32]
    2110:	51000400 	sub	w0, w0, #0x1
    2114:	b947abe1 	ldr	w1, [sp, #1960]
    2118:	6b00003f 	cmp	w1, w0
    211c:	54ff770b 	b.lt	ffc <debayer_neon64+0x244>  // b.tstop
    2120:	b947afe0 	ldr	w0, [sp, #1964]
    2124:	11008000 	add	w0, w0, #0x20
    2128:	b907afe0 	str	w0, [sp, #1964]
    212c:	b94027e0 	ldr	w0, [sp, #36]
    2130:	51000400 	sub	w0, w0, #0x1
    2134:	b947afe1 	ldr	w1, [sp, #1964]
    2138:	6b00003f 	cmp	w1, w0
    213c:	54ff652b 	b.lt	de0 <debayer_neon64+0x28>  // b.tstop
    2140:	d503201f 	nop
    2144:	911ec3ff 	add	sp, sp, #0x7b0
    2148:	d65f03c0 	ret

000000000000214c <debayer>:
    214c:	d10143ff 	sub	sp, sp, #0x50
    2150:	f90017e0 	str	x0, [sp, #40]
    2154:	f90013e1 	str	x1, [sp, #32]
    2158:	f9000fe2 	str	x2, [sp, #24]
    215c:	f9000be3 	str	x3, [sp, #16]
    2160:	b9000fe4 	str	w4, [sp, #12]
    2164:	b9000be5 	str	w5, [sp, #8]
    2168:	b9004fff 	str	wzr, [sp, #76]
    216c:	52800020 	mov	w0, #0x1                   	// #1
    2170:	b9004be0 	str	w0, [sp, #72]
    2174:	14000139 	b	2658 <debayer+0x50c>
    2178:	52800020 	mov	w0, #0x1                   	// #1
    217c:	b90047e0 	str	w0, [sp, #68]
    2180:	1400012e 	b	2638 <debayer+0x4ec>
    2184:	b9404be0 	ldr	w0, [sp, #72]
    2188:	51000401 	sub	w1, w0, #0x1
    218c:	b9400fe0 	ldr	w0, [sp, #12]
    2190:	1b007c21 	mul	w1, w1, w0
    2194:	b94047e0 	ldr	w0, [sp, #68]
    2198:	0b000020 	add	w0, w1, w0
    219c:	93407c00 	sxtw	x0, w0
    21a0:	f94017e1 	ldr	x1, [sp, #40]
    21a4:	8b000020 	add	x0, x1, x0
    21a8:	39400000 	ldrb	w0, [x0]
    21ac:	790087e0 	strh	w0, [sp, #66]
    21b0:	b9404be0 	ldr	w0, [sp, #72]
    21b4:	51000401 	sub	w1, w0, #0x1
    21b8:	b9400fe0 	ldr	w0, [sp, #12]
    21bc:	1b007c21 	mul	w1, w1, w0
    21c0:	b94047e0 	ldr	w0, [sp, #68]
    21c4:	0b000020 	add	w0, w1, w0
    21c8:	93407c00 	sxtw	x0, w0
    21cc:	d1000400 	sub	x0, x0, #0x1
    21d0:	f94017e1 	ldr	x1, [sp, #40]
    21d4:	8b000020 	add	x0, x1, x0
    21d8:	39400000 	ldrb	w0, [x0]
    21dc:	790083e0 	strh	w0, [sp, #64]
    21e0:	b9404be0 	ldr	w0, [sp, #72]
    21e4:	51000401 	sub	w1, w0, #0x1
    21e8:	b9400fe0 	ldr	w0, [sp, #12]
    21ec:	1b007c21 	mul	w1, w1, w0
    21f0:	b94047e0 	ldr	w0, [sp, #68]
    21f4:	0b000020 	add	w0, w1, w0
    21f8:	93407c00 	sxtw	x0, w0
    21fc:	91000400 	add	x0, x0, #0x1
    2200:	f94017e1 	ldr	x1, [sp, #40]
    2204:	8b000020 	add	x0, x1, x0
    2208:	39400000 	ldrb	w0, [x0]
    220c:	79007fe0 	strh	w0, [sp, #62]
    2210:	b9404be1 	ldr	w1, [sp, #72]
    2214:	b9400fe0 	ldr	w0, [sp, #12]
    2218:	1b007c21 	mul	w1, w1, w0
    221c:	b94047e0 	ldr	w0, [sp, #68]
    2220:	0b000020 	add	w0, w1, w0
    2224:	93407c00 	sxtw	x0, w0
    2228:	d1000400 	sub	x0, x0, #0x1
    222c:	f94017e1 	ldr	x1, [sp, #40]
    2230:	8b000020 	add	x0, x1, x0
    2234:	39400000 	ldrb	w0, [x0]
    2238:	79007be0 	strh	w0, [sp, #60]
    223c:	b9404be1 	ldr	w1, [sp, #72]
    2240:	b9400fe0 	ldr	w0, [sp, #12]
    2244:	1b007c21 	mul	w1, w1, w0
    2248:	b94047e0 	ldr	w0, [sp, #68]
    224c:	0b000020 	add	w0, w1, w0
    2250:	93407c00 	sxtw	x0, w0
    2254:	91000400 	add	x0, x0, #0x1
    2258:	f94017e1 	ldr	x1, [sp, #40]
    225c:	8b000020 	add	x0, x1, x0
    2260:	39400000 	ldrb	w0, [x0]
    2264:	790077e0 	strh	w0, [sp, #58]
    2268:	b9404be0 	ldr	w0, [sp, #72]
    226c:	11000401 	add	w1, w0, #0x1
    2270:	b9400fe0 	ldr	w0, [sp, #12]
    2274:	1b007c21 	mul	w1, w1, w0
    2278:	b94047e0 	ldr	w0, [sp, #68]
    227c:	0b000020 	add	w0, w1, w0
    2280:	93407c00 	sxtw	x0, w0
    2284:	f94017e1 	ldr	x1, [sp, #40]
    2288:	8b000020 	add	x0, x1, x0
    228c:	39400000 	ldrb	w0, [x0]
    2290:	790073e0 	strh	w0, [sp, #56]
    2294:	b9404be0 	ldr	w0, [sp, #72]
    2298:	11000401 	add	w1, w0, #0x1
    229c:	b9400fe0 	ldr	w0, [sp, #12]
    22a0:	1b007c21 	mul	w1, w1, w0
    22a4:	b94047e0 	ldr	w0, [sp, #68]
    22a8:	0b000020 	add	w0, w1, w0
    22ac:	93407c00 	sxtw	x0, w0
    22b0:	d1000400 	sub	x0, x0, #0x1
    22b4:	f94017e1 	ldr	x1, [sp, #40]
    22b8:	8b000020 	add	x0, x1, x0
    22bc:	39400000 	ldrb	w0, [x0]
    22c0:	79006fe0 	strh	w0, [sp, #54]
    22c4:	b9404be0 	ldr	w0, [sp, #72]
    22c8:	11000401 	add	w1, w0, #0x1
    22cc:	b9400fe0 	ldr	w0, [sp, #12]
    22d0:	1b007c21 	mul	w1, w1, w0
    22d4:	b94047e0 	ldr	w0, [sp, #68]
    22d8:	0b000020 	add	w0, w1, w0
    22dc:	93407c00 	sxtw	x0, w0
    22e0:	91000400 	add	x0, x0, #0x1
    22e4:	f94017e1 	ldr	x1, [sp, #40]
    22e8:	8b000020 	add	x0, x1, x0
    22ec:	39400000 	ldrb	w0, [x0]
    22f0:	79006be0 	strh	w0, [sp, #52]
    22f4:	b9404be0 	ldr	w0, [sp, #72]
    22f8:	7100001f 	cmp	w0, #0x0
    22fc:	12000000 	and	w0, w0, #0x1
    2300:	5a80a400 	cneg	w0, w0, lt  // lt = tstop
    2304:	7100041f 	cmp	w0, #0x1
    2308:	540005a1 	b.ne	23bc <debayer+0x270>  // b.any
    230c:	b94047e0 	ldr	w0, [sp, #68]
    2310:	7100001f 	cmp	w0, #0x0
    2314:	12000000 	and	w0, w0, #0x1
    2318:	5a80a400 	cneg	w0, w0, lt  // lt = tstop
    231c:	7100041f 	cmp	w0, #0x1
    2320:	540004e1 	b.ne	23bc <debayer+0x270>  // b.any
    2324:	b9404be1 	ldr	w1, [sp, #72]
    2328:	b9400fe0 	ldr	w0, [sp, #12]
    232c:	1b007c21 	mul	w1, w1, w0
    2330:	b94047e0 	ldr	w0, [sp, #68]
    2334:	0b000020 	add	w0, w1, w0
    2338:	93407c00 	sxtw	x0, w0
    233c:	f94017e1 	ldr	x1, [sp, #40]
    2340:	8b000021 	add	x1, x1, x0
    2344:	b9404fe0 	ldr	w0, [sp, #76]
    2348:	f9400fe2 	ldr	x2, [sp, #24]
    234c:	8b000040 	add	x0, x2, x0
    2350:	39400021 	ldrb	w1, [x1]
    2354:	39000001 	strb	w1, [x0]
    2358:	794087e1 	ldrh	w1, [sp, #66]
    235c:	794073e0 	ldrh	w0, [sp, #56]
    2360:	0b000020 	add	w0, w1, w0
    2364:	531f7c01 	lsr	w1, w0, #31
    2368:	0b000020 	add	w0, w1, w0
    236c:	13017c00 	asr	w0, w0, #1
    2370:	2a0003e2 	mov	w2, w0
    2374:	b9404fe0 	ldr	w0, [sp, #76]
    2378:	f94013e1 	ldr	x1, [sp, #32]
    237c:	8b000020 	add	x0, x1, x0
    2380:	12001c41 	and	w1, w2, #0xff
    2384:	39000001 	strb	w1, [x0]
    2388:	79407be1 	ldrh	w1, [sp, #60]
    238c:	794077e0 	ldrh	w0, [sp, #58]
    2390:	0b000020 	add	w0, w1, w0
    2394:	531f7c01 	lsr	w1, w0, #31
    2398:	0b000020 	add	w0, w1, w0
    239c:	13017c00 	asr	w0, w0, #1
    23a0:	2a0003e2 	mov	w2, w0
    23a4:	b9404fe0 	ldr	w0, [sp, #76]
    23a8:	f9400be1 	ldr	x1, [sp, #16]
    23ac:	8b000020 	add	x0, x1, x0
    23b0:	12001c41 	and	w1, w2, #0xff
    23b4:	39000001 	strb	w1, [x0]
    23b8:	1400009a 	b	2620 <debayer+0x4d4>
    23bc:	b9404be0 	ldr	w0, [sp, #72]
    23c0:	7100001f 	cmp	w0, #0x0
    23c4:	12000000 	and	w0, w0, #0x1
    23c8:	5a80a400 	cneg	w0, w0, lt  // lt = tstop
    23cc:	7100041f 	cmp	w0, #0x1
    23d0:	540006a1 	b.ne	24a4 <debayer+0x358>  // b.any
    23d4:	b94047e0 	ldr	w0, [sp, #68]
    23d8:	12000000 	and	w0, w0, #0x1
    23dc:	7100001f 	cmp	w0, #0x0
    23e0:	54000621 	b.ne	24a4 <debayer+0x358>  // b.any
    23e4:	b9404be1 	ldr	w1, [sp, #72]
    23e8:	b9400fe0 	ldr	w0, [sp, #12]
    23ec:	1b007c21 	mul	w1, w1, w0
    23f0:	b94047e0 	ldr	w0, [sp, #68]
    23f4:	0b000020 	add	w0, w1, w0
    23f8:	93407c00 	sxtw	x0, w0
    23fc:	f94017e1 	ldr	x1, [sp, #40]
    2400:	8b000021 	add	x1, x1, x0
    2404:	b9404fe0 	ldr	w0, [sp, #76]
    2408:	f9400be2 	ldr	x2, [sp, #16]
    240c:	8b000040 	add	x0, x2, x0
    2410:	39400021 	ldrb	w1, [x1]
    2414:	39000001 	strb	w1, [x0]
    2418:	794083e1 	ldrh	w1, [sp, #64]
    241c:	79407fe0 	ldrh	w0, [sp, #62]
    2420:	0b000021 	add	w1, w1, w0
    2424:	79406fe0 	ldrh	w0, [sp, #54]
    2428:	0b000021 	add	w1, w1, w0
    242c:	79406be0 	ldrh	w0, [sp, #52]
    2430:	0b000020 	add	w0, w1, w0
    2434:	11000c01 	add	w1, w0, #0x3
    2438:	7100001f 	cmp	w0, #0x0
    243c:	1a80b020 	csel	w0, w1, w0, lt  // lt = tstop
    2440:	13027c00 	asr	w0, w0, #2
    2444:	2a0003e2 	mov	w2, w0
    2448:	b9404fe0 	ldr	w0, [sp, #76]
    244c:	f94013e1 	ldr	x1, [sp, #32]
    2450:	8b000020 	add	x0, x1, x0
    2454:	12001c41 	and	w1, w2, #0xff
    2458:	39000001 	strb	w1, [x0]
    245c:	794087e1 	ldrh	w1, [sp, #66]
    2460:	794073e0 	ldrh	w0, [sp, #56]
    2464:	0b000021 	add	w1, w1, w0
    2468:	79407be0 	ldrh	w0, [sp, #60]
    246c:	0b000021 	add	w1, w1, w0
    2470:	794077e0 	ldrh	w0, [sp, #58]
    2474:	0b000020 	add	w0, w1, w0
    2478:	11000c01 	add	w1, w0, #0x3
    247c:	7100001f 	cmp	w0, #0x0
    2480:	1a80b020 	csel	w0, w1, w0, lt  // lt = tstop
    2484:	13027c00 	asr	w0, w0, #2
    2488:	2a0003e2 	mov	w2, w0
    248c:	b9404fe0 	ldr	w0, [sp, #76]
    2490:	f9400fe1 	ldr	x1, [sp, #24]
    2494:	8b000020 	add	x0, x1, x0
    2498:	12001c41 	and	w1, w2, #0xff
    249c:	39000001 	strb	w1, [x0]
    24a0:	14000060 	b	2620 <debayer+0x4d4>
    24a4:	b9404be0 	ldr	w0, [sp, #72]
    24a8:	12000000 	and	w0, w0, #0x1
    24ac:	7100001f 	cmp	w0, #0x0
    24b0:	540006e1 	b.ne	258c <debayer+0x440>  // b.any
    24b4:	b94047e0 	ldr	w0, [sp, #68]
    24b8:	7100001f 	cmp	w0, #0x0
    24bc:	12000000 	and	w0, w0, #0x1
    24c0:	5a80a400 	cneg	w0, w0, lt  // lt = tstop
    24c4:	7100041f 	cmp	w0, #0x1
    24c8:	54000621 	b.ne	258c <debayer+0x440>  // b.any
    24cc:	b9404be1 	ldr	w1, [sp, #72]
    24d0:	b9400fe0 	ldr	w0, [sp, #12]
    24d4:	1b007c21 	mul	w1, w1, w0
    24d8:	b94047e0 	ldr	w0, [sp, #68]
    24dc:	0b000020 	add	w0, w1, w0
    24e0:	93407c00 	sxtw	x0, w0
    24e4:	f94017e1 	ldr	x1, [sp, #40]
    24e8:	8b000021 	add	x1, x1, x0
    24ec:	b9404fe0 	ldr	w0, [sp, #76]
    24f0:	f94013e2 	ldr	x2, [sp, #32]
    24f4:	8b000040 	add	x0, x2, x0
    24f8:	39400021 	ldrb	w1, [x1]
    24fc:	39000001 	strb	w1, [x0]
    2500:	794083e1 	ldrh	w1, [sp, #64]
    2504:	79407fe0 	ldrh	w0, [sp, #62]
    2508:	0b000021 	add	w1, w1, w0
    250c:	79406fe0 	ldrh	w0, [sp, #54]
    2510:	0b000021 	add	w1, w1, w0
    2514:	79406be0 	ldrh	w0, [sp, #52]
    2518:	0b000020 	add	w0, w1, w0
    251c:	11000c01 	add	w1, w0, #0x3
    2520:	7100001f 	cmp	w0, #0x0
    2524:	1a80b020 	csel	w0, w1, w0, lt  // lt = tstop
    2528:	13027c00 	asr	w0, w0, #2
    252c:	2a0003e2 	mov	w2, w0
    2530:	b9404fe0 	ldr	w0, [sp, #76]
    2534:	f9400be1 	ldr	x1, [sp, #16]
    2538:	8b000020 	add	x0, x1, x0
    253c:	12001c41 	and	w1, w2, #0xff
    2540:	39000001 	strb	w1, [x0]
    2544:	794087e1 	ldrh	w1, [sp, #66]
    2548:	794073e0 	ldrh	w0, [sp, #56]
    254c:	0b000021 	add	w1, w1, w0
    2550:	79407be0 	ldrh	w0, [sp, #60]
    2554:	0b000021 	add	w1, w1, w0
    2558:	794077e0 	ldrh	w0, [sp, #58]
    255c:	0b000020 	add	w0, w1, w0
    2560:	11000c01 	add	w1, w0, #0x3
    2564:	7100001f 	cmp	w0, #0x0
    2568:	1a80b020 	csel	w0, w1, w0, lt  // lt = tstop
    256c:	13027c00 	asr	w0, w0, #2
    2570:	2a0003e2 	mov	w2, w0
    2574:	b9404fe0 	ldr	w0, [sp, #76]
    2578:	f9400fe1 	ldr	x1, [sp, #24]
    257c:	8b000020 	add	x0, x1, x0
    2580:	12001c41 	and	w1, w2, #0xff
    2584:	39000001 	strb	w1, [x0]
    2588:	14000026 	b	2620 <debayer+0x4d4>
    258c:	b9404be1 	ldr	w1, [sp, #72]
    2590:	b9400fe0 	ldr	w0, [sp, #12]
    2594:	1b007c21 	mul	w1, w1, w0
    2598:	b94047e0 	ldr	w0, [sp, #68]
    259c:	0b000020 	add	w0, w1, w0
    25a0:	93407c00 	sxtw	x0, w0
    25a4:	f94017e1 	ldr	x1, [sp, #40]
    25a8:	8b000021 	add	x1, x1, x0
    25ac:	b9404fe0 	ldr	w0, [sp, #76]
    25b0:	f9400fe2 	ldr	x2, [sp, #24]
    25b4:	8b000040 	add	x0, x2, x0
    25b8:	39400021 	ldrb	w1, [x1]
    25bc:	39000001 	strb	w1, [x0]
    25c0:	794087e1 	ldrh	w1, [sp, #66]
    25c4:	794073e0 	ldrh	w0, [sp, #56]
    25c8:	0b000020 	add	w0, w1, w0
    25cc:	531f7c01 	lsr	w1, w0, #31
    25d0:	0b000020 	add	w0, w1, w0
    25d4:	13017c00 	asr	w0, w0, #1
    25d8:	2a0003e2 	mov	w2, w0
    25dc:	b9404fe0 	ldr	w0, [sp, #76]
    25e0:	f9400be1 	ldr	x1, [sp, #16]
    25e4:	8b000020 	add	x0, x1, x0
    25e8:	12001c41 	and	w1, w2, #0xff
    25ec:	39000001 	strb	w1, [x0]
    25f0:	79407be1 	ldrh	w1, [sp, #60]
    25f4:	794077e0 	ldrh	w0, [sp, #58]
    25f8:	0b000020 	add	w0, w1, w0
    25fc:	531f7c01 	lsr	w1, w0, #31
    2600:	0b000020 	add	w0, w1, w0
    2604:	13017c00 	asr	w0, w0, #1
    2608:	2a0003e2 	mov	w2, w0
    260c:	b9404fe0 	ldr	w0, [sp, #76]
    2610:	f94013e1 	ldr	x1, [sp, #32]
    2614:	8b000020 	add	x0, x1, x0
    2618:	12001c41 	and	w1, w2, #0xff
    261c:	39000001 	strb	w1, [x0]
    2620:	b9404fe0 	ldr	w0, [sp, #76]
    2624:	11000400 	add	w0, w0, #0x1
    2628:	b9004fe0 	str	w0, [sp, #76]
    262c:	b94047e0 	ldr	w0, [sp, #68]
    2630:	11000400 	add	w0, w0, #0x1
    2634:	b90047e0 	str	w0, [sp, #68]
    2638:	b9400fe0 	ldr	w0, [sp, #12]
    263c:	51000400 	sub	w0, w0, #0x1
    2640:	b94047e1 	ldr	w1, [sp, #68]
    2644:	6b00003f 	cmp	w1, w0
    2648:	54ffd9eb 	b.lt	2184 <debayer+0x38>  // b.tstop
    264c:	b9404be0 	ldr	w0, [sp, #72]
    2650:	11000400 	add	w0, w0, #0x1
    2654:	b9004be0 	str	w0, [sp, #72]
    2658:	b9400be0 	ldr	w0, [sp, #8]
    265c:	51000400 	sub	w0, w0, #0x1
    2660:	b9404be1 	ldr	w1, [sp, #72]
    2664:	6b00003f 	cmp	w1, w0
    2668:	54ffd88b 	b.lt	2178 <debayer+0x2c>  // b.tstop
    266c:	d503201f 	nop
    2670:	910143ff 	add	sp, sp, #0x50
    2674:	d65f03c0 	ret

0000000000002678 <clock>:
    2678:	a9be7bfd 	stp	x29, x30, [sp, #-32]!
    267c:	910003fd 	mov	x29, sp
    2680:	910063a0 	add	x0, x29, #0x18
    2684:	940000f1 	bl	2a48 <XTime_GetTime>
    2688:	f9400fa0 	ldr	x0, [x29, #24]
    268c:	a8c27bfd 	ldp	x29, x30, [sp], #32
    2690:	d65f03c0 	ret

0000000000002694 <main>:
    2694:	a9bc7bfd 	stp	x29, x30, [sp, #-64]!
    2698:	910003fd 	mov	x29, sp
    269c:	52807d00 	mov	w0, #0x3e8                 	// #1000
    26a0:	b9002fa0 	str	w0, [x29, #44]
    26a4:	b9003fbf 	str	wzr, [x29, #60]
    26a8:	14000012 	b	26f0 <main+0x5c>
    26ac:	90000100 	adrp	x0, 22000 <green.21471+0x3d40>
    26b0:	910b0003 	add	x3, x0, #0x2c0
    26b4:	900000e0 	adrp	x0, 1e000 <red.21470+0x3d40>
    26b8:	910b0002 	add	x2, x0, #0x2c0
    26bc:	900000c0 	adrp	x0, 1a000 <src.21469+0x3f48>
    26c0:	910b0001 	add	x1, x0, #0x2c0
    26c4:	900000a0 	adrp	x0, 16000 <__exidx_end>
    26c8:	9102e000 	add	x0, x0, #0xb8
    26cc:	aa0303e5 	mov	x5, x3
    26d0:	aa0203e4 	mov	x4, x2
    26d4:	aa0103e3 	mov	x3, x1
    26d8:	52801042 	mov	w2, #0x82                  	// #130
    26dc:	52801041 	mov	w1, #0x82                  	// #130
    26e0:	97fff9b6 	bl	db8 <debayer_neon64>
    26e4:	b9403fa0 	ldr	w0, [x29, #60]
    26e8:	11000400 	add	w0, w0, #0x1
    26ec:	b9003fa0 	str	w0, [x29, #60]
    26f0:	b9403fa0 	ldr	w0, [x29, #60]
    26f4:	7100241f 	cmp	w0, #0x9
    26f8:	54fffdad 	b.le	26ac <main+0x18>
    26fc:	97ffffdf 	bl	2678 <clock>
    2700:	f90013a0 	str	x0, [x29, #32]
    2704:	b9003bbf 	str	wzr, [x29, #56]
    2708:	14000012 	b	2750 <main+0xbc>
    270c:	90000100 	adrp	x0, 22000 <green.21471+0x3d40>
    2710:	910b0003 	add	x3, x0, #0x2c0
    2714:	900000e0 	adrp	x0, 1e000 <red.21470+0x3d40>
    2718:	910b0002 	add	x2, x0, #0x2c0
    271c:	900000c0 	adrp	x0, 1a000 <src.21469+0x3f48>
    2720:	910b0001 	add	x1, x0, #0x2c0
    2724:	900000a0 	adrp	x0, 16000 <__exidx_end>
    2728:	9102e000 	add	x0, x0, #0xb8
    272c:	aa0303e5 	mov	x5, x3
    2730:	aa0203e4 	mov	x4, x2
    2734:	aa0103e3 	mov	x3, x1
    2738:	52801042 	mov	w2, #0x82                  	// #130
    273c:	52801041 	mov	w1, #0x82                  	// #130
    2740:	97fff99e 	bl	db8 <debayer_neon64>
    2744:	b9403ba0 	ldr	w0, [x29, #56]
    2748:	11000400 	add	w0, w0, #0x1
    274c:	b9003ba0 	str	w0, [x29, #56]
    2750:	b9403ba1 	ldr	w1, [x29, #56]
    2754:	b9402fa0 	ldr	w0, [x29, #44]
    2758:	6b00003f 	cmp	w1, w0
    275c:	54fffd8b 	b.lt	270c <main+0x78>  // b.tstop
    2760:	97ffffc6 	bl	2678 <clock>
    2764:	f9000fa0 	str	x0, [x29, #24]
    2768:	f9400fa1 	ldr	x1, [x29, #24]
    276c:	f94013a0 	ldr	x0, [x29, #32]
    2770:	cb000020 	sub	x0, x1, x0
    2774:	9e630000 	ucvtf	d0, x0
    2778:	d2d09000 	mov	x0, #0x848000000000        	// #145685290680320
    277c:	f2e825c0 	movk	x0, #0x412e, lsl #48
    2780:	9e670001 	fmov	d1, x0
    2784:	1e610800 	fmul	d0, d0, d1
    2788:	d2e80b20 	mov	x0, #0x4059000000000000    	// #4636737291354636288
    278c:	9e670001 	fmov	d1, x0
    2790:	1e611800 	fdiv	d0, d0, d1
    2794:	fd000ba0 	str	d0, [x29, #16]
    2798:	f0000040 	adrp	x0, d000 <__trunctfdf2+0x290>
    279c:	91080000 	add	x0, x0, #0x200
    27a0:	fd400ba0 	ldr	d0, [x29, #16]
    27a4:	9400019d 	bl	2e18 <printf>
    27a8:	b90037bf 	str	wzr, [x29, #52]
    27ac:	1400000f 	b	27e8 <main+0x154>
    27b0:	90000100 	adrp	x0, 22000 <green.21471+0x3d40>
    27b4:	910b0003 	add	x3, x0, #0x2c0
    27b8:	900000e0 	adrp	x0, 1e000 <red.21470+0x3d40>
    27bc:	910b0002 	add	x2, x0, #0x2c0
    27c0:	900000c0 	adrp	x0, 1a000 <src.21469+0x3f48>
    27c4:	910b0001 	add	x1, x0, #0x2c0
    27c8:	900000a0 	adrp	x0, 16000 <__exidx_end>
    27cc:	9102e000 	add	x0, x0, #0xb8
    27d0:	52801045 	mov	w5, #0x82                  	// #130
    27d4:	52801044 	mov	w4, #0x82                  	// #130
    27d8:	97fffe5d 	bl	214c <debayer>
    27dc:	b94037a0 	ldr	w0, [x29, #52]
    27e0:	11000400 	add	w0, w0, #0x1
    27e4:	b90037a0 	str	w0, [x29, #52]
    27e8:	b94037a0 	ldr	w0, [x29, #52]
    27ec:	7100241f 	cmp	w0, #0x9
    27f0:	54fffe0d 	b.le	27b0 <main+0x11c>
    27f4:	97ffffa1 	bl	2678 <clock>
    27f8:	f90013a0 	str	x0, [x29, #32]
    27fc:	b90033bf 	str	wzr, [x29, #48]
    2800:	1400000f 	b	283c <main+0x1a8>
    2804:	90000100 	adrp	x0, 22000 <green.21471+0x3d40>
    2808:	910b0003 	add	x3, x0, #0x2c0
    280c:	900000e0 	adrp	x0, 1e000 <red.21470+0x3d40>
    2810:	910b0002 	add	x2, x0, #0x2c0
    2814:	900000c0 	adrp	x0, 1a000 <src.21469+0x3f48>
    2818:	910b0001 	add	x1, x0, #0x2c0
    281c:	900000a0 	adrp	x0, 16000 <__exidx_end>
    2820:	9102e000 	add	x0, x0, #0xb8
    2824:	52801045 	mov	w5, #0x82                  	// #130
    2828:	52801044 	mov	w4, #0x82                  	// #130
    282c:	97fffe48 	bl	214c <debayer>
    2830:	b94033a0 	ldr	w0, [x29, #48]
    2834:	11000400 	add	w0, w0, #0x1
    2838:	b90033a0 	str	w0, [x29, #48]
    283c:	b94033a1 	ldr	w1, [x29, #48]
    2840:	b9402fa0 	ldr	w0, [x29, #44]
    2844:	6b00003f 	cmp	w1, w0
    2848:	54fffdeb 	b.lt	2804 <main+0x170>  // b.tstop
    284c:	97ffff8b 	bl	2678 <clock>
    2850:	f9000fa0 	str	x0, [x29, #24]
    2854:	f9400fa1 	ldr	x1, [x29, #24]
    2858:	f94013a0 	ldr	x0, [x29, #32]
    285c:	cb000020 	sub	x0, x1, x0
    2860:	9e630000 	ucvtf	d0, x0
    2864:	d2d09000 	mov	x0, #0x848000000000        	// #145685290680320
    2868:	f2e825c0 	movk	x0, #0x412e, lsl #48
    286c:	9e670001 	fmov	d1, x0
    2870:	1e610800 	fmul	d0, d0, d1
    2874:	d2e80b20 	mov	x0, #0x4059000000000000    	// #4636737291354636288
    2878:	9e670001 	fmov	d1, x0
    287c:	1e611800 	fdiv	d0, d0, d1
    2880:	fd000ba0 	str	d0, [x29, #16]
    2884:	f0000040 	adrp	x0, d000 <__trunctfdf2+0x290>
    2888:	91088000 	add	x0, x0, #0x220
    288c:	fd400ba0 	ldr	d0, [x29, #16]
    2890:	94000162 	bl	2e18 <printf>
    2894:	52800000 	mov	w0, #0x0                   	// #0
    2898:	a8c47bfd 	ldp	x29, x30, [sp], #64
    289c:	d65f03c0 	ret

00000000000028a0 <initialise_monitor_handles>:
    28a0:	d65f03c0 	ret
    28a4:	00000000 	.inst	0x00000000 ; undefined

00000000000028a8 <FIQInterrupt>:
    28a8:	f0000040 	adrp	x0, d000 <__trunctfdf2+0x290>
    28ac:	911bc000 	add	x0, x0, #0x6f0
    28b0:	a9430001 	ldp	x1, x0, [x0, #48]
    28b4:	d61f0020 	br	x1

00000000000028b8 <IRQInterrupt>:
    28b8:	f0000040 	adrp	x0, d000 <__trunctfdf2+0x290>
    28bc:	911bc000 	add	x0, x0, #0x6f0
    28c0:	a9420001 	ldp	x1, x0, [x0, #32]
    28c4:	d61f0020 	br	x1

00000000000028c8 <SynchronousInterrupt>:
    28c8:	f0000040 	adrp	x0, d000 <__trunctfdf2+0x290>
    28cc:	911bc000 	add	x0, x0, #0x6f0
    28d0:	a9410001 	ldp	x1, x0, [x0, #16]
    28d4:	d61f0020 	br	x1

00000000000028d8 <SErrorInterrupt>:
    28d8:	f0000040 	adrp	x0, d000 <__trunctfdf2+0x290>
    28dc:	911bc000 	add	x0, x0, #0x6f0
    28e0:	a9440001 	ldp	x1, x0, [x0, #64]
    28e4:	d61f0020 	br	x1
    28e8:	00016080 	.word	0x00016080
    28ec:	00000000 	.word	0x00000000
    28f0:	00016080 	.word	0x00016080
    28f4:	00000000 	.word	0x00000000
    28f8:	00016080 	.word	0x00016080
    28fc:	00000000 	.word	0x00000000
    2900:	00026340 	.word	0x00026340
    2904:	00000000 	.word	0x00000000

0000000000002908 <_startup>:
    2908:	d2800000 	mov	x0, #0x0                   	// #0
    290c:	5800036a 	ldr	x10, 2978 <_startup+0x70>
    2910:	b940014b 	ldr	w11, [x10]
    2914:	d53800a2 	mrs	x2, mpidr_el1
    2918:	d3401c42 	ubfx	x2, x2, #0, #8
    291c:	52800021 	mov	w1, #0x1                   	// #1
    2920:	1ac22022 	lsl	w2, w1, w2
    2924:	6a02016b 	ands	w11, w11, w2
    2928:	540001a1 	b.ne	295c <_startup+0x54>  // b.any
    292c:	58fffde1 	ldr	x1, 28e8 <SErrorInterrupt+0x10>
    2930:	58fffe02 	ldr	x2, 28f0 <SErrorInterrupt+0x18>
    2934:	eb02003f 	cmp	x1, x2
    2938:	5400006a 	b.ge	2944 <_startup+0x3c>  // b.tcont
    293c:	f8008420 	str	x0, [x1], #8
    2940:	17fffffd 	b	2934 <_startup+0x2c>
    2944:	58fffda1 	ldr	x1, 28f8 <SErrorInterrupt+0x20>
    2948:	58fffdc2 	ldr	x2, 2900 <SErrorInterrupt+0x28>
    294c:	eb02003f 	cmp	x1, x2
    2950:	5400006a 	b.ge	295c <_startup+0x54>  // b.tcont
    2954:	f8008420 	str	x0, [x1], #8
    2958:	17fffffd 	b	294c <_startup+0x44>
    295c:	94000071 	bl	2b20 <__libc_init_array>
    2960:	d2800000 	mov	x0, #0x0                   	// #0
    2964:	d2800001 	mov	x1, #0x0                   	// #0
    2968:	97ffff4b 	bl	2694 <main>
    296c:	94000059 	bl	2ad0 <__libc_fini_array>
    2970:	9400004a 	bl	2a98 <exit>
    2974:	14000000 	b	2974 <_startup+0x6c>
    2978:	fd5c0090 	.word	0xfd5c0090
    297c:	00000000 	.word	0x00000000

0000000000002980 <Xil_ExceptionNullHandler>:
    2980:	14000000 	b	2980 <Xil_ExceptionNullHandler>
    2984:	d503201f 	nop

0000000000002988 <Xil_SyncAbortHandler>:
    2988:	14000000 	b	2988 <Xil_SyncAbortHandler>
    298c:	d503201f 	nop

0000000000002990 <Xil_SErrorAbortHandler>:
    2990:	14000000 	b	2990 <Xil_SErrorAbortHandler>
    2994:	d503201f 	nop

0000000000002998 <Xil_ExceptionInit>:
    2998:	d65f03c0 	ret
    299c:	d503201f 	nop

00000000000029a0 <Xil_ExceptionRegisterHandler>:
    29a0:	d37c7c00 	ubfiz	x0, x0, #4, #32
    29a4:	f0000043 	adrp	x3, d000 <__trunctfdf2+0x290>
    29a8:	911bc063 	add	x3, x3, #0x6f0
    29ac:	8b000064 	add	x4, x3, x0
    29b0:	f8206861 	str	x1, [x3, x0]
    29b4:	f9000482 	str	x2, [x4, #8]
    29b8:	d65f03c0 	ret
    29bc:	d503201f 	nop

00000000000029c0 <Xil_GetExceptionRegisterHandler>:
    29c0:	d37c7c00 	ubfiz	x0, x0, #4, #32
    29c4:	f0000043 	adrp	x3, d000 <__trunctfdf2+0x290>
    29c8:	911bc063 	add	x3, x3, #0x6f0
    29cc:	8b000064 	add	x4, x3, x0
    29d0:	f8606860 	ldr	x0, [x3, x0]
    29d4:	f9000020 	str	x0, [x1]
    29d8:	f9400480 	ldr	x0, [x4, #8]
    29dc:	f9000040 	str	x0, [x2]
    29e0:	d65f03c0 	ret
    29e4:	d503201f 	nop

00000000000029e8 <Xil_ExceptionRemoveHandler>:
    29e8:	d37c7c00 	ubfiz	x0, x0, #4, #32
    29ec:	f0000041 	adrp	x1, d000 <__trunctfdf2+0x290>
    29f0:	911bc021 	add	x1, x1, #0x6f0
    29f4:	90000002 	adrp	x2, 2000 <_HEAP_SIZE>
    29f8:	8b000023 	add	x3, x1, x0
    29fc:	91260042 	add	x2, x2, #0x980
    2a00:	f8206822 	str	x2, [x1, x0]
    2a04:	f900047f 	str	xzr, [x3, #8]
    2a08:	d65f03c0 	ret
    2a0c:	00000000 	.inst	0x00000000 ; undefined

0000000000002a10 <XTime_StartTimer>:
    2a10:	d2bfe4c0 	mov	x0, #0xff260000            	// #4280680448
    2a14:	b9400001 	ldr	w1, [x0]
    2a18:	37000101 	tbnz	w1, #0, 2a38 <XTime_StartTimer+0x28>
    2a1c:	d2800402 	mov	x2, #0x20                  	// #32
    2a20:	5293e103 	mov	w3, #0x9f08                	// #40712
    2a24:	f2bfe4c2 	movk	x2, #0xff26, lsl #16
    2a28:	72a03f83 	movk	w3, #0x1fc, lsl #16
    2a2c:	52800021 	mov	w1, #0x1                   	// #1
    2a30:	b9000043 	str	w3, [x2]
    2a34:	b9000001 	str	w1, [x0]
    2a38:	d65f03c0 	ret
    2a3c:	d503201f 	nop

0000000000002a40 <XTime_SetTime>:
    2a40:	d65f03c0 	ret
    2a44:	d503201f 	nop

0000000000002a48 <XTime_GetTime>:
    2a48:	d2bfe4c1 	mov	x1, #0xff260000            	// #4280680448
    2a4c:	b9400022 	ldr	w2, [x1]
    2a50:	37000102 	tbnz	w2, #0, 2a70 <XTime_GetTime+0x28>
    2a54:	d2800403 	mov	x3, #0x20                  	// #32
    2a58:	5293e104 	mov	w4, #0x9f08                	// #40712
    2a5c:	f2bfe4c3 	movk	x3, #0xff26, lsl #16
    2a60:	72a03f84 	movk	w4, #0x1fc, lsl #16
    2a64:	52800022 	mov	w2, #0x1                   	// #1
    2a68:	b9000064 	str	w4, [x3]
    2a6c:	b9000022 	str	w2, [x1]
    2a70:	d53be021 	mrs	x1, cntpct_el0
    2a74:	f9000001 	str	x1, [x0]
    2a78:	d65f03c0 	ret
    2a7c:	00000000 	.inst	0x00000000 ; undefined

0000000000002a80 <atexit>:
    2a80:	aa0003e1 	mov	x1, x0
    2a84:	d2800003 	mov	x3, #0x0                   	// #0
    2a88:	d2800002 	mov	x2, #0x0                   	// #0
    2a8c:	52800000 	mov	w0, #0x0                   	// #0
    2a90:	14000bc0 	b	5990 <__register_exitproc>
    2a94:	00000000 	.inst	0x00000000 ; undefined

0000000000002a98 <exit>:
    2a98:	a9be7bfd 	stp	x29, x30, [sp, #-32]!
    2a9c:	d2800001 	mov	x1, #0x0                   	// #0
    2aa0:	910003fd 	mov	x29, sp
    2aa4:	f9000bf3 	str	x19, [sp, #16]
    2aa8:	2a0003f3 	mov	w19, w0
    2aac:	94000bf7 	bl	5a88 <__call_exitprocs>
    2ab0:	f0000040 	adrp	x0, d000 <__trunctfdf2+0x290>
    2ab4:	f9412000 	ldr	x0, [x0, #576]
    2ab8:	f9402c01 	ldr	x1, [x0, #88]
    2abc:	b4000041 	cbz	x1, 2ac4 <exit+0x2c>
    2ac0:	d63f0020 	blr	x1
    2ac4:	2a1303e0 	mov	w0, w19
    2ac8:	9400281a 	bl	cb30 <_exit>
    2acc:	00000000 	.inst	0x00000000 ; undefined

0000000000002ad0 <__libc_fini_array>:
    2ad0:	a9be7bfd 	stp	x29, x30, [sp, #-32]!
    2ad4:	910003fd 	mov	x29, sp
    2ad8:	a90153f3 	stp	x19, x20, [sp, #16]
    2adc:	580001b3 	ldr	x19, 2b10 <__libc_fini_array+0x40>
    2ae0:	580001d4 	ldr	x20, 2b18 <__libc_fini_array+0x48>
    2ae4:	cb140273 	sub	x19, x19, x20
    2ae8:	9343fe73 	asr	x19, x19, #3
    2aec:	b40000b3 	cbz	x19, 2b00 <__libc_fini_array+0x30>
    2af0:	d1000673 	sub	x19, x19, #0x1
    2af4:	f8737a80 	ldr	x0, [x20, x19, lsl #3]
    2af8:	d63f0000 	blr	x0
    2afc:	b5ffffb3 	cbnz	x19, 2af0 <__libc_fini_array+0x20>
    2b00:	a94153f3 	ldp	x19, x20, [sp, #16]
    2b04:	a8c27bfd 	ldp	x29, x30, [sp], #32
    2b08:	1400299e 	b	d180 <_fini>
    2b0c:	d503201f 	nop
    2b10:	00016048 	.word	0x00016048
    2b14:	00000000 	.word	0x00000000
    2b18:	00016040 	.word	0x00016040
    2b1c:	00000000 	.word	0x00000000

0000000000002b20 <__libc_init_array>:
    2b20:	a9bd7bfd 	stp	x29, x30, [sp, #-48]!
    2b24:	910003fd 	mov	x29, sp
    2b28:	a90153f3 	stp	x19, x20, [sp, #16]
    2b2c:	f90013f5 	str	x21, [sp, #32]
    2b30:	58000394 	ldr	x20, 2ba0 <__libc_init_array+0x80>
    2b34:	580003b5 	ldr	x21, 2ba8 <__libc_init_array+0x88>
    2b38:	cb150294 	sub	x20, x20, x21
    2b3c:	9343fe94 	asr	x20, x20, #3
    2b40:	b40000f4 	cbz	x20, 2b5c <__libc_init_array+0x3c>
    2b44:	d2800013 	mov	x19, #0x0                   	// #0
    2b48:	f8737aa0 	ldr	x0, [x21, x19, lsl #3]
    2b4c:	91000673 	add	x19, x19, #0x1
    2b50:	d63f0000 	blr	x0
    2b54:	eb13029f 	cmp	x20, x19
    2b58:	54ffff81 	b.ne	2b48 <__libc_init_array+0x28>  // b.any
    2b5c:	94002979 	bl	d140 <_init>
    2b60:	58000294 	ldr	x20, 2bb0 <__libc_init_array+0x90>
    2b64:	580002b5 	ldr	x21, 2bb8 <__libc_init_array+0x98>
    2b68:	cb150294 	sub	x20, x20, x21
    2b6c:	9343fe94 	asr	x20, x20, #3
    2b70:	b40000f4 	cbz	x20, 2b8c <__libc_init_array+0x6c>
    2b74:	d2800013 	mov	x19, #0x0                   	// #0
    2b78:	f8737aa0 	ldr	x0, [x21, x19, lsl #3]
    2b7c:	91000673 	add	x19, x19, #0x1
    2b80:	d63f0000 	blr	x0
    2b84:	eb13029f 	cmp	x20, x19
    2b88:	54ffff81 	b.ne	2b78 <__libc_init_array+0x58>  // b.any
    2b8c:	a94153f3 	ldp	x19, x20, [sp, #16]
    2b90:	f94013f5 	ldr	x21, [sp, #32]
    2b94:	a8c37bfd 	ldp	x29, x30, [sp], #48
    2b98:	d65f03c0 	ret
    2b9c:	d503201f 	nop
    2ba0:	00016000 	.word	0x00016000
    2ba4:	00000000 	.word	0x00000000
    2ba8:	00016000 	.word	0x00016000
    2bac:	00000000 	.word	0x00000000
    2bb0:	00016008 	.word	0x00016008
    2bb4:	00000000 	.word	0x00000000
    2bb8:	00016000 	.word	0x00016000
    2bbc:	00000000 	.word	0x00000000

0000000000002bc0 <memset>:
    2bc0:	4e010c20 	dup	v0.16b, w1
    2bc4:	8b020004 	add	x4, x0, x2
    2bc8:	f101805f 	cmp	x2, #0x60
    2bcc:	540003c8 	b.hi	2c44 <memset+0x84>  // b.pmore
    2bd0:	f100405f 	cmp	x2, #0x10
    2bd4:	54000202 	b.cs	2c14 <memset+0x54>  // b.hs, b.nlast
    2bd8:	4e083c01 	mov	x1, v0.d[0]
    2bdc:	361800a2 	tbz	w2, #3, 2bf0 <memset+0x30>
    2be0:	f9000001 	str	x1, [x0]
    2be4:	f81f8081 	stur	x1, [x4, #-8]
    2be8:	d65f03c0 	ret
    2bec:	d503201f 	nop
    2bf0:	36100082 	tbz	w2, #2, 2c00 <memset+0x40>
    2bf4:	b9000001 	str	w1, [x0]
    2bf8:	b81fc081 	stur	w1, [x4, #-4]
    2bfc:	d65f03c0 	ret
    2c00:	b4000082 	cbz	x2, 2c10 <memset+0x50>
    2c04:	39000001 	strb	w1, [x0]
    2c08:	36080042 	tbz	w2, #1, 2c10 <memset+0x50>
    2c0c:	781fe081 	sturh	w1, [x4, #-2]
    2c10:	d65f03c0 	ret
    2c14:	3d800000 	str	q0, [x0]
    2c18:	373000c2 	tbnz	w2, #6, 2c30 <memset+0x70>
    2c1c:	3c9f0080 	stur	q0, [x4, #-16]
    2c20:	36280062 	tbz	w2, #5, 2c2c <memset+0x6c>
    2c24:	3d800400 	str	q0, [x0, #16]
    2c28:	3c9e0080 	stur	q0, [x4, #-32]
    2c2c:	d65f03c0 	ret
    2c30:	3d800400 	str	q0, [x0, #16]
    2c34:	ad010000 	stp	q0, q0, [x0, #32]
    2c38:	ad3f0080 	stp	q0, q0, [x4, #-32]
    2c3c:	d65f03c0 	ret
    2c40:	d503201f 	nop
    2c44:	12001c21 	and	w1, w1, #0xff
    2c48:	927cec03 	and	x3, x0, #0xfffffffffffffff0
    2c4c:	3d800000 	str	q0, [x0]
    2c50:	f104005f 	cmp	x2, #0x100
    2c54:	7a402820 	ccmp	w1, #0x0, #0x0, cs  // cs = hs, nlast
    2c58:	54000180 	b.eq	2c88 <memset+0xc8>  // b.none
    2c5c:	cb030082 	sub	x2, x4, x3
    2c60:	91004063 	add	x3, x3, #0x10
    2c64:	d1014042 	sub	x2, x2, #0x50
    2c68:	ac820060 	stp	q0, q0, [x3], #64
    2c6c:	ad3f0060 	stp	q0, q0, [x3, #-32]
    2c70:	f1010042 	subs	x2, x2, #0x40
    2c74:	54ffffa8 	b.hi	2c68 <memset+0xa8>  // b.pmore
    2c78:	ad3e0080 	stp	q0, q0, [x4, #-64]
    2c7c:	ad3f0080 	stp	q0, q0, [x4, #-32]
    2c80:	d65f03c0 	ret
    2c84:	d503201f 	nop
    2c88:	d53b00e5 	mrs	x5, dczid_el0
    2c8c:	3727fe85 	tbnz	w5, #4, 2c5c <memset+0x9c>
    2c90:	12000ca5 	and	w5, w5, #0xf
    2c94:	710010bf 	cmp	w5, #0x4
    2c98:	54000281 	b.ne	2ce8 <memset+0x128>  // b.any
    2c9c:	3d800460 	str	q0, [x3, #16]
    2ca0:	ad010060 	stp	q0, q0, [x3, #32]
    2ca4:	927ae463 	and	x3, x3, #0xffffffffffffffc0
    2ca8:	ad020060 	stp	q0, q0, [x3, #64]
    2cac:	ad030060 	stp	q0, q0, [x3, #96]
    2cb0:	cb030082 	sub	x2, x4, x3
    2cb4:	d1040042 	sub	x2, x2, #0x100
    2cb8:	91020063 	add	x3, x3, #0x80
    2cbc:	d503201f 	nop
    2cc0:	d50b7423 	dc	zva, x3
    2cc4:	91010063 	add	x3, x3, #0x40
    2cc8:	f1010042 	subs	x2, x2, #0x40
    2ccc:	54ffffa8 	b.hi	2cc0 <memset+0x100>  // b.pmore
    2cd0:	ad000060 	stp	q0, q0, [x3]
    2cd4:	ad010060 	stp	q0, q0, [x3, #32]
    2cd8:	ad3e0080 	stp	q0, q0, [x4, #-64]
    2cdc:	ad3f0080 	stp	q0, q0, [x4, #-32]
    2ce0:	d65f03c0 	ret
    2ce4:	d503201f 	nop
    2ce8:	710014bf 	cmp	w5, #0x5
    2cec:	54000241 	b.ne	2d34 <memset+0x174>  // b.any
    2cf0:	3d800460 	str	q0, [x3, #16]
    2cf4:	ad010060 	stp	q0, q0, [x3, #32]
    2cf8:	ad020060 	stp	q0, q0, [x3, #64]
    2cfc:	ad030060 	stp	q0, q0, [x3, #96]
    2d00:	9279e063 	and	x3, x3, #0xffffffffffffff80
    2d04:	cb030082 	sub	x2, x4, x3
    2d08:	d1040042 	sub	x2, x2, #0x100
    2d0c:	91020063 	add	x3, x3, #0x80
    2d10:	d50b7423 	dc	zva, x3
    2d14:	91020063 	add	x3, x3, #0x80
    2d18:	f1020042 	subs	x2, x2, #0x80
    2d1c:	54ffffa8 	b.hi	2d10 <memset+0x150>  // b.pmore
    2d20:	ad3c0080 	stp	q0, q0, [x4, #-128]
    2d24:	ad3d0080 	stp	q0, q0, [x4, #-96]
    2d28:	ad3e0080 	stp	q0, q0, [x4, #-64]
    2d2c:	ad3f0080 	stp	q0, q0, [x4, #-32]
    2d30:	d65f03c0 	ret
    2d34:	52800086 	mov	w6, #0x4                   	// #4
    2d38:	1ac520c7 	lsl	w7, w6, w5
    2d3c:	910100e5 	add	x5, x7, #0x40
    2d40:	eb05005f 	cmp	x2, x5
    2d44:	54fff8c3 	b.cc	2c5c <memset+0x9c>  // b.lo, b.ul, b.last
    2d48:	d10004e6 	sub	x6, x7, #0x1
    2d4c:	8b070065 	add	x5, x3, x7
    2d50:	91004063 	add	x3, x3, #0x10
    2d54:	eb0300a2 	subs	x2, x5, x3
    2d58:	8a2600a5 	bic	x5, x5, x6
    2d5c:	540000a0 	b.eq	2d70 <memset+0x1b0>  // b.none
    2d60:	ac820060 	stp	q0, q0, [x3], #64
    2d64:	ad3f0060 	stp	q0, q0, [x3, #-32]
    2d68:	f1010042 	subs	x2, x2, #0x40
    2d6c:	54ffffa8 	b.hi	2d60 <memset+0x1a0>  // b.pmore
    2d70:	aa0503e3 	mov	x3, x5
    2d74:	cb050082 	sub	x2, x4, x5
    2d78:	eb070042 	subs	x2, x2, x7
    2d7c:	540000a3 	b.cc	2d90 <memset+0x1d0>  // b.lo, b.ul, b.last
    2d80:	d50b7423 	dc	zva, x3
    2d84:	8b070063 	add	x3, x3, x7
    2d88:	eb070042 	subs	x2, x2, x7
    2d8c:	54ffffa2 	b.cs	2d80 <memset+0x1c0>  // b.hs, b.nlast
    2d90:	8b070042 	add	x2, x2, x7
    2d94:	17ffffb7 	b	2c70 <memset+0xb0>

0000000000002d98 <_printf_r>:
    2d98:	a9b07bfd 	stp	x29, x30, [sp, #-256]!
    2d9c:	910003fd 	mov	x29, sp
    2da0:	910403a8 	add	x8, x29, #0x100
    2da4:	910343a9 	add	x9, x29, #0xd0
    2da8:	a90323a8 	stp	x8, x8, [x29, #48]
    2dac:	128005e8 	mov	w8, #0xffffffd0            	// #-48
    2db0:	f90023a9 	str	x9, [x29, #64]
    2db4:	b9004ba8 	str	w8, [x29, #72]
    2db8:	12800fe8 	mov	w8, #0xffffff80            	// #-128
    2dbc:	b9004fa8 	str	w8, [x29, #76]
    2dc0:	a9432faa 	ldp	x10, x11, [x29, #48]
    2dc4:	a9012faa 	stp	x10, x11, [x29, #16]
    2dc8:	a94427a8 	ldp	x8, x9, [x29, #64]
    2dcc:	a90227a8 	stp	x8, x9, [x29, #32]
    2dd0:	a90d0fa2 	stp	x2, x3, [x29, #208]
    2dd4:	aa0103e2 	mov	x2, x1
    2dd8:	a90e17a4 	stp	x4, x5, [x29, #224]
    2ddc:	910043a3 	add	x3, x29, #0x10
    2de0:	a90f1fa6 	stp	x6, x7, [x29, #240]
    2de4:	3d8017a0 	str	q0, [x29, #80]
    2de8:	3d801ba1 	str	q1, [x29, #96]
    2dec:	3d801fa2 	str	q2, [x29, #112]
    2df0:	3d8023a3 	str	q3, [x29, #128]
    2df4:	3d8027a4 	str	q4, [x29, #144]
    2df8:	3d802ba5 	str	q5, [x29, #160]
    2dfc:	3d802fa6 	str	q6, [x29, #176]
    2e00:	3d8033a7 	str	q7, [x29, #192]
    2e04:	f9400801 	ldr	x1, [x0, #16]
    2e08:	94000028 	bl	2ea8 <_vfprintf_r>
    2e0c:	a8d07bfd 	ldp	x29, x30, [sp], #256
    2e10:	d65f03c0 	ret
    2e14:	d503201f 	nop

0000000000002e18 <printf>:
    2e18:	a9af7bfd 	stp	x29, x30, [sp, #-272]!
    2e1c:	f0000048 	adrp	x8, d000 <__trunctfdf2+0x290>
    2e20:	910003fd 	mov	x29, sp
    2e24:	910443a9 	add	x9, x29, #0x110
    2e28:	910343aa 	add	x10, x29, #0xd0
    2e2c:	f943a908 	ldr	x8, [x8, #1872]
    2e30:	a90327a9 	stp	x9, x9, [x29, #48]
    2e34:	128006e9 	mov	w9, #0xffffffc8            	// #-56
    2e38:	f90023aa 	str	x10, [x29, #64]
    2e3c:	b9004ba9 	str	w9, [x29, #72]
    2e40:	12800fe9 	mov	w9, #0xffffff80            	// #-128
    2e44:	b9004fa9 	str	w9, [x29, #76]
    2e48:	a94337ac 	ldp	x12, x13, [x29, #48]
    2e4c:	a90137ac 	stp	x12, x13, [x29, #16]
    2e50:	a9442faa 	ldp	x10, x11, [x29, #64]
    2e54:	a9022faa 	stp	x10, x11, [x29, #32]
    2e58:	a90d8ba1 	stp	x1, x2, [x29, #216]
    2e5c:	aa0003e2 	mov	x2, x0
    2e60:	a90e93a3 	stp	x3, x4, [x29, #232]
    2e64:	aa0803e0 	mov	x0, x8
    2e68:	a90f9ba5 	stp	x5, x6, [x29, #248]
    2e6c:	910043a3 	add	x3, x29, #0x10
    2e70:	f90087a7 	str	x7, [x29, #264]
    2e74:	3d8017a0 	str	q0, [x29, #80]
    2e78:	3d801ba1 	str	q1, [x29, #96]
    2e7c:	3d801fa2 	str	q2, [x29, #112]
    2e80:	3d8023a3 	str	q3, [x29, #128]
    2e84:	3d8027a4 	str	q4, [x29, #144]
    2e88:	3d802ba5 	str	q5, [x29, #160]
    2e8c:	3d802fa6 	str	q6, [x29, #176]
    2e90:	3d8033a7 	str	q7, [x29, #192]
    2e94:	f9400901 	ldr	x1, [x8, #16]
    2e98:	94000004 	bl	2ea8 <_vfprintf_r>
    2e9c:	a8d17bfd 	ldp	x29, x30, [sp], #272
    2ea0:	d65f03c0 	ret
    2ea4:	00000000 	.inst	0x00000000 ; undefined

0000000000002ea8 <_vfprintf_r>:
    2ea8:	d109c3ff 	sub	sp, sp, #0x270
    2eac:	a9007bfd 	stp	x29, x30, [sp]
    2eb0:	910003fd 	mov	x29, sp
    2eb4:	a902dff6 	stp	x22, x23, [sp, #40]
    2eb8:	aa0103f6 	mov	x22, x1
    2ebc:	f9400061 	ldr	x1, [x3]
    2ec0:	aa0003f7 	mov	x23, x0
    2ec4:	f90083a1 	str	x1, [x29, #256]
    2ec8:	f9400461 	ldr	x1, [x3, #8]
    2ecc:	f9005fa1 	str	x1, [x29, #184]
    2ed0:	f9400861 	ldr	x1, [x3, #16]
    2ed4:	f9004ba1 	str	x1, [x29, #144]
    2ed8:	b9401861 	ldr	w1, [x3, #24]
    2edc:	b90113a1 	str	w1, [x29, #272]
    2ee0:	b9401c61 	ldr	w1, [x3, #28]
    2ee4:	b900aba1 	str	w1, [x29, #168]
    2ee8:	f9000bf3 	str	x19, [sp, #16]
    2eec:	aa0303f3 	mov	x19, x3
    2ef0:	f90027fa 	str	x26, [sp, #72]
    2ef4:	aa0203fa 	mov	x26, x2
    2ef8:	94001330 	bl	7bb8 <_localeconv_r>
    2efc:	f9400000 	ldr	x0, [x0]
    2f00:	f90067a0 	str	x0, [x29, #200]
    2f04:	94001a9f 	bl	9980 <strlen>
    2f08:	f9006fa0 	str	x0, [x29, #216]
    2f0c:	b4000077 	cbz	x23, 2f18 <_vfprintf_r+0x70>
    2f10:	b94052e0 	ldr	w0, [x23, #80]
    2f14:	34002ca0 	cbz	w0, 34a8 <_vfprintf_r+0x600>
    2f18:	79c022c1 	ldrsh	w1, [x22, #16]
    2f1c:	12003c20 	and	w0, w1, #0xffff
    2f20:	376800e0 	tbnz	w0, #13, 2f3c <_vfprintf_r+0x94>
    2f24:	b940aec2 	ldr	w2, [x22, #172]
    2f28:	32130021 	orr	w1, w1, #0x2000
    2f2c:	12003c20 	and	w0, w1, #0xffff
    2f30:	790022c1 	strh	w1, [x22, #16]
    2f34:	12127841 	and	w1, w2, #0xffffdfff
    2f38:	b900aec1 	str	w1, [x22, #172]
    2f3c:	36182700 	tbz	w0, #3, 341c <_vfprintf_r+0x574>
    2f40:	f9400ec1 	ldr	x1, [x22, #24]
    2f44:	b40026c1 	cbz	x1, 341c <_vfprintf_r+0x574>
    2f48:	52800341 	mov	w1, #0x1a                  	// #26
    2f4c:	0a010000 	and	w0, w0, w1
    2f50:	7100281f 	cmp	w0, #0xa
    2f54:	54002760 	b.eq	3440 <_vfprintf_r+0x598>  // b.none
    2f58:	9107c3a0 	add	x0, x29, #0x1f0
    2f5c:	fd0033a8 	str	d8, [x29, #96]
    2f60:	aa0003e6 	mov	x6, x0
    2f64:	f900bba0 	str	x0, [x29, #368]
    2f68:	2f00e408 	movi	d8, #0x0
    2f6c:	f0000040 	adrp	x0, d000 <__trunctfdf2+0x290>
    2f70:	910c0000 	add	x0, x0, #0x300
    2f74:	a90573bb 	stp	x27, x28, [x29, #80]
    2f78:	9100401b 	add	x27, x0, #0x10
    2f7c:	a901d7b4 	stp	x20, x21, [x29, #24]
    2f80:	a903e7b8 	stp	x24, x25, [x29, #56]
    2f84:	a909ffbf 	stp	xzr, xzr, [x29, #152]
    2f88:	b900afbf 	str	wzr, [x29, #172]
    2f8c:	f9005bbf 	str	xzr, [x29, #176]
    2f90:	f90063bf 	str	xzr, [x29, #192]
    2f94:	f9006ba0 	str	x0, [x29, #208]
    2f98:	b900f3bf 	str	wzr, [x29, #240]
    2f9c:	b90117bf 	str	wzr, [x29, #276]
    2fa0:	f9008fb6 	str	x22, [x29, #280]
    2fa4:	b9017bbf 	str	wzr, [x29, #376]
    2fa8:	f900c3bf 	str	xzr, [x29, #384]
    2fac:	39400340 	ldrb	w0, [x26]
    2fb0:	aa1a03f4 	mov	x20, x26
    2fb4:	7100941f 	cmp	w0, #0x25
    2fb8:	7a401804 	ccmp	w0, #0x0, #0x4, ne  // ne = any
    2fbc:	540002a0 	b.eq	3010 <_vfprintf_r+0x168>  // b.none
    2fc0:	38401e80 	ldrb	w0, [x20, #1]!
    2fc4:	7100941f 	cmp	w0, #0x25
    2fc8:	7a401804 	ccmp	w0, #0x0, #0x4, ne  // ne = any
    2fcc:	54ffffa1 	b.ne	2fc0 <_vfprintf_r+0x118>  // b.any
    2fd0:	cb1a0293 	sub	x19, x20, x26
    2fd4:	340001f3 	cbz	w19, 3010 <_vfprintf_r+0x168>
    2fd8:	b9417ba0 	ldr	w0, [x29, #376]
    2fdc:	93407e61 	sxtw	x1, w19
    2fe0:	a90004da 	stp	x26, x1, [x6]
    2fe4:	910040c6 	add	x6, x6, #0x10
    2fe8:	11000400 	add	w0, w0, #0x1
    2fec:	b9017ba0 	str	w0, [x29, #376]
    2ff0:	71001c1f 	cmp	w0, #0x7
    2ff4:	f940c3a0 	ldr	x0, [x29, #384]
    2ff8:	8b010000 	add	x0, x0, x1
    2ffc:	f900c3a0 	str	x0, [x29, #384]
    3000:	540025ac 	b.gt	34b4 <_vfprintf_r+0x60c>
    3004:	b94117a0 	ldr	w0, [x29, #276]
    3008:	0b130000 	add	w0, w0, w19
    300c:	b90117a0 	str	w0, [x29, #276]
    3010:	39400280 	ldrb	w0, [x20]
    3014:	34004b00 	cbz	w0, 3974 <_vfprintf_r+0xacc>
    3018:	91000693 	add	x19, x20, #0x1
    301c:	39400688 	ldrb	w8, [x20, #1]
    3020:	12800007 	mov	w7, #0xffffffff            	// #-1
    3024:	d0000058 	adrp	x24, d000 <__trunctfdf2+0x290>
    3028:	2a0703f4 	mov	w20, w7
    302c:	91092318 	add	x24, x24, #0x248
    3030:	aa0603f9 	mov	x25, x6
    3034:	39053fbf 	strb	wzr, [x29, #335]
    3038:	52800015 	mov	w21, #0x0                   	// #0
    303c:	52800016 	mov	w22, #0x0                   	// #0
    3040:	91000673 	add	x19, x19, #0x1
    3044:	2a0803fc 	mov	w28, w8
    3048:	51008380 	sub	w0, w28, #0x20
    304c:	7101681f 	cmp	w0, #0x5a
    3050:	540021e9 	b.ls	348c <_vfprintf_r+0x5e4>  // b.plast
    3054:	aa1903e6 	mov	x6, x25
    3058:	340048fc 	cbz	w28, 3974 <_vfprintf_r+0xacc>
    305c:	39053fbf 	strb	wzr, [x29, #335]
    3060:	390623bc 	strb	w28, [x29, #392]
    3064:	52800034 	mov	w20, #0x1                   	// #1
    3068:	910623ba 	add	x26, x29, #0x188
    306c:	2a1403f8 	mov	w24, w20
    3070:	52800001 	mov	w1, #0x0                   	// #0
    3074:	52800007 	mov	w7, #0x0                   	// #0
    3078:	b900e3bf 	str	wzr, [x29, #224]
    307c:	b900ebbf 	str	wzr, [x29, #232]
    3080:	b900fbbf 	str	wzr, [x29, #248]
    3084:	f90087bf 	str	xzr, [x29, #264]
    3088:	721f02ca 	ands	w10, w22, #0x2
    308c:	11000a80 	add	w0, w20, #0x2
    3090:	1a941014 	csel	w20, w0, w20, ne  // ne = any
    3094:	52801099 	mov	w25, #0x84                  	// #132
    3098:	f940c3a0 	ldr	x0, [x29, #384]
    309c:	6a1902d9 	ands	w25, w22, w25
    30a0:	540006c1 	b.ne	3178 <_vfprintf_r+0x2d0>  // b.any
    30a4:	4b1402a4 	sub	w4, w21, w20
    30a8:	7100009f 	cmp	w4, #0x0
    30ac:	5400066d 	b.le	3178 <_vfprintf_r+0x2d0>
    30b0:	7100409f 	cmp	w4, #0x10
    30b4:	b9417ba1 	ldr	w1, [x29, #376]
    30b8:	5400046d 	b.le	3144 <_vfprintf_r+0x29c>
    30bc:	290f1fb4 	stp	w20, w7, [x29, #120]
    30c0:	d2800205 	mov	x5, #0x10                  	// #16
    30c4:	f90043b3 	str	x19, [x29, #128]
    30c8:	2a0403f3 	mov	w19, w4
    30cc:	b9008baa 	str	w10, [x29, #136]
    30d0:	f9406bb4 	ldr	x20, [x29, #208]
    30d4:	14000005 	b	30e8 <_vfprintf_r+0x240>
    30d8:	51004273 	sub	w19, w19, #0x10
    30dc:	910040c6 	add	x6, x6, #0x10
    30e0:	7100427f 	cmp	w19, #0x10
    30e4:	5400028d 	b.le	3134 <_vfprintf_r+0x28c>
    30e8:	11000421 	add	w1, w1, #0x1
    30ec:	91004000 	add	x0, x0, #0x10
    30f0:	a90014d4 	stp	x20, x5, [x6]
    30f4:	71001c3f 	cmp	w1, #0x7
    30f8:	b9017ba1 	str	w1, [x29, #376]
    30fc:	f900c3a0 	str	x0, [x29, #384]
    3100:	54fffecd 	b.le	30d8 <_vfprintf_r+0x230>
    3104:	f9408fa1 	ldr	x1, [x29, #280]
    3108:	9105c3a2 	add	x2, x29, #0x170
    310c:	aa1703e0 	mov	x0, x23
    3110:	94001ad2 	bl	9c58 <__sprint_r>
    3114:	350059a0 	cbnz	w0, 3c48 <_vfprintf_r+0xda0>
    3118:	51004273 	sub	w19, w19, #0x10
    311c:	9107c3a6 	add	x6, x29, #0x1f0
    3120:	d2800205 	mov	x5, #0x10                  	// #16
    3124:	b9417ba1 	ldr	w1, [x29, #376]
    3128:	f940c3a0 	ldr	x0, [x29, #384]
    312c:	7100427f 	cmp	w19, #0x10
    3130:	54fffdcc 	b.gt	30e8 <_vfprintf_r+0x240>
    3134:	2a1303e4 	mov	w4, w19
    3138:	b9408baa 	ldr	w10, [x29, #136]
    313c:	294f1fb4 	ldp	w20, w7, [x29, #120]
    3140:	f94043b3 	ldr	x19, [x29, #128]
    3144:	11000421 	add	w1, w1, #0x1
    3148:	93407c84 	sxtw	x4, w4
    314c:	8b040000 	add	x0, x0, x4
    3150:	71001c3f 	cmp	w1, #0x7
    3154:	b9017ba1 	str	w1, [x29, #376]
    3158:	d0000041 	adrp	x1, d000 <__trunctfdf2+0x290>
    315c:	f90004c4 	str	x4, [x6, #8]
    3160:	910c0021 	add	x1, x1, #0x300
    3164:	f900c3a0 	str	x0, [x29, #384]
    3168:	f90000c1 	str	x1, [x6]
    316c:	54006a0c 	b.gt	3eac <_vfprintf_r+0x1004>
    3170:	39453fa1 	ldrb	w1, [x29, #335]
    3174:	910040c6 	add	x6, x6, #0x10
    3178:	340001a1 	cbz	w1, 31ac <_vfprintf_r+0x304>
    317c:	b9417ba1 	ldr	w1, [x29, #376]
    3180:	91000400 	add	x0, x0, #0x1
    3184:	f900c3a0 	str	x0, [x29, #384]
    3188:	910040c6 	add	x6, x6, #0x10
    318c:	11000421 	add	w1, w1, #0x1
    3190:	b9017ba1 	str	w1, [x29, #376]
    3194:	71001c3f 	cmp	w1, #0x7
    3198:	91053fa1 	add	x1, x29, #0x14f
    319c:	f81f00c1 	stur	x1, [x6, #-16]
    31a0:	d2800021 	mov	x1, #0x1                   	// #1
    31a4:	f81f80c1 	stur	x1, [x6, #-8]
    31a8:	54003fec 	b.gt	39a4 <_vfprintf_r+0xafc>
    31ac:	340001aa 	cbz	w10, 31e0 <_vfprintf_r+0x338>
    31b0:	b9417ba1 	ldr	w1, [x29, #376]
    31b4:	91000800 	add	x0, x0, #0x2
    31b8:	f900c3a0 	str	x0, [x29, #384]
    31bc:	910040c6 	add	x6, x6, #0x10
    31c0:	11000421 	add	w1, w1, #0x1
    31c4:	b9017ba1 	str	w1, [x29, #376]
    31c8:	71001c3f 	cmp	w1, #0x7
    31cc:	910543a1 	add	x1, x29, #0x150
    31d0:	f81f00c1 	stur	x1, [x6, #-16]
    31d4:	d2800041 	mov	x1, #0x2                   	// #2
    31d8:	f81f80c1 	stur	x1, [x6, #-8]
    31dc:	540054ec 	b.gt	3c78 <_vfprintf_r+0xdd0>
    31e0:	7102033f 	cmp	w25, #0x80
    31e4:	540049e0 	b.eq	3b20 <_vfprintf_r+0xc78>  // b.none
    31e8:	4b1800f9 	sub	w25, w7, w24
    31ec:	7100033f 	cmp	w25, #0x0
    31f0:	540007cd 	b.le	32e8 <_vfprintf_r+0x440>
    31f4:	7100433f 	cmp	w25, #0x10
    31f8:	b9417ba1 	ldr	w1, [x29, #376]
    31fc:	540004cd 	b.le	3294 <_vfprintf_r+0x3ec>
    3200:	aa1b03e2 	mov	x2, x27
    3204:	d2800204 	mov	x4, #0x10                  	// #16
    3208:	2a1903fb 	mov	w27, w25
    320c:	2a1803f9 	mov	w25, w24
    3210:	2a1403f8 	mov	w24, w20
    3214:	aa1303f4 	mov	x20, x19
    3218:	aa0203f3 	mov	x19, x2
    321c:	14000005 	b	3230 <_vfprintf_r+0x388>
    3220:	5100437b 	sub	w27, w27, #0x10
    3224:	910040c6 	add	x6, x6, #0x10
    3228:	7100437f 	cmp	w27, #0x10
    322c:	5400028d 	b.le	327c <_vfprintf_r+0x3d4>
    3230:	11000421 	add	w1, w1, #0x1
    3234:	91004000 	add	x0, x0, #0x10
    3238:	a90010d3 	stp	x19, x4, [x6]
    323c:	71001c3f 	cmp	w1, #0x7
    3240:	b9017ba1 	str	w1, [x29, #376]
    3244:	f900c3a0 	str	x0, [x29, #384]
    3248:	54fffecd 	b.le	3220 <_vfprintf_r+0x378>
    324c:	f9408fa1 	ldr	x1, [x29, #280]
    3250:	9105c3a2 	add	x2, x29, #0x170
    3254:	aa1703e0 	mov	x0, x23
    3258:	94001a80 	bl	9c58 <__sprint_r>
    325c:	35004f60 	cbnz	w0, 3c48 <_vfprintf_r+0xda0>
    3260:	5100437b 	sub	w27, w27, #0x10
    3264:	9107c3a6 	add	x6, x29, #0x1f0
    3268:	d2800204 	mov	x4, #0x10                  	// #16
    326c:	b9417ba1 	ldr	w1, [x29, #376]
    3270:	f940c3a0 	ldr	x0, [x29, #384]
    3274:	7100437f 	cmp	w27, #0x10
    3278:	54fffdcc 	b.gt	3230 <_vfprintf_r+0x388>
    327c:	aa1303e2 	mov	x2, x19
    3280:	aa1403f3 	mov	x19, x20
    3284:	2a1803f4 	mov	w20, w24
    3288:	2a1903f8 	mov	w24, w25
    328c:	2a1b03f9 	mov	w25, w27
    3290:	aa0203fb 	mov	x27, x2
    3294:	11000421 	add	w1, w1, #0x1
    3298:	93407f39 	sxtw	x25, w25
    329c:	71001c3f 	cmp	w1, #0x7
    32a0:	b9017ba1 	str	w1, [x29, #376]
    32a4:	d0000041 	adrp	x1, d000 <__trunctfdf2+0x290>
    32a8:	910c0021 	add	x1, x1, #0x300
    32ac:	8b190000 	add	x0, x0, x25
    32b0:	f90004d9 	str	x25, [x6, #8]
    32b4:	91004021 	add	x1, x1, #0x10
    32b8:	f900c3a0 	str	x0, [x29, #384]
    32bc:	f90000c1 	str	x1, [x6]
    32c0:	910040c6 	add	x6, x6, #0x10
    32c4:	5400012d 	b.le	32e8 <_vfprintf_r+0x440>
    32c8:	f9408fa1 	ldr	x1, [x29, #280]
    32cc:	9105c3a2 	add	x2, x29, #0x170
    32d0:	aa1703e0 	mov	x0, x23
    32d4:	94001a61 	bl	9c58 <__sprint_r>
    32d8:	35004b80 	cbnz	w0, 3c48 <_vfprintf_r+0xda0>
    32dc:	f940c3a0 	ldr	x0, [x29, #384]
    32e0:	9107c3a6 	add	x6, x29, #0x1f0
    32e4:	d503201f 	nop
    32e8:	37403ed6 	tbnz	w22, #8, 3ac0 <_vfprintf_r+0xc18>
    32ec:	b9417ba1 	ldr	w1, [x29, #376]
    32f0:	93407f18 	sxtw	x24, w24
    32f4:	8b180000 	add	x0, x0, x24
    32f8:	a90060da 	stp	x26, x24, [x6]
    32fc:	11000421 	add	w1, w1, #0x1
    3300:	b9017ba1 	str	w1, [x29, #376]
    3304:	f900c3a0 	str	x0, [x29, #384]
    3308:	71001c3f 	cmp	w1, #0x7
    330c:	54003cac 	b.gt	3aa0 <_vfprintf_r+0xbf8>
    3310:	910040c6 	add	x6, x6, #0x10
    3314:	36100676 	tbz	w22, #2, 33e0 <_vfprintf_r+0x538>
    3318:	4b1402b8 	sub	w24, w21, w20
    331c:	7100031f 	cmp	w24, #0x0
    3320:	5400060d 	b.le	33e0 <_vfprintf_r+0x538>
    3324:	7100431f 	cmp	w24, #0x10
    3328:	b9417ba1 	ldr	w1, [x29, #376]
    332c:	5400036d 	b.le	3398 <_vfprintf_r+0x4f0>
    3330:	d2800219 	mov	x25, #0x10                  	// #16
    3334:	f9406bba 	ldr	x26, [x29, #208]
    3338:	f9408fb6 	ldr	x22, [x29, #280]
    333c:	14000005 	b	3350 <_vfprintf_r+0x4a8>
    3340:	51004318 	sub	w24, w24, #0x10
    3344:	910040c6 	add	x6, x6, #0x10
    3348:	7100431f 	cmp	w24, #0x10
    334c:	5400026d 	b.le	3398 <_vfprintf_r+0x4f0>
    3350:	11000421 	add	w1, w1, #0x1
    3354:	91004000 	add	x0, x0, #0x10
    3358:	a90064da 	stp	x26, x25, [x6]
    335c:	71001c3f 	cmp	w1, #0x7
    3360:	b9017ba1 	str	w1, [x29, #376]
    3364:	f900c3a0 	str	x0, [x29, #384]
    3368:	54fffecd 	b.le	3340 <_vfprintf_r+0x498>
    336c:	9105c3a2 	add	x2, x29, #0x170
    3370:	aa1603e1 	mov	x1, x22
    3374:	aa1703e0 	mov	x0, x23
    3378:	94001a38 	bl	9c58 <__sprint_r>
    337c:	35004680 	cbnz	w0, 3c4c <_vfprintf_r+0xda4>
    3380:	51004318 	sub	w24, w24, #0x10
    3384:	9107c3a6 	add	x6, x29, #0x1f0
    3388:	b9417ba1 	ldr	w1, [x29, #376]
    338c:	7100431f 	cmp	w24, #0x10
    3390:	f940c3a0 	ldr	x0, [x29, #384]
    3394:	54fffdec 	b.gt	3350 <_vfprintf_r+0x4a8>
    3398:	11000421 	add	w1, w1, #0x1
    339c:	93407f18 	sxtw	x24, w24
    33a0:	8b180000 	add	x0, x0, x24
    33a4:	71001c3f 	cmp	w1, #0x7
    33a8:	b9017ba1 	str	w1, [x29, #376]
    33ac:	d0000041 	adrp	x1, d000 <__trunctfdf2+0x290>
    33b0:	f90004d8 	str	x24, [x6, #8]
    33b4:	910c0021 	add	x1, x1, #0x300
    33b8:	f900c3a0 	str	x0, [x29, #384]
    33bc:	f90000c1 	str	x1, [x6]
    33c0:	5400010d 	b.le	33e0 <_vfprintf_r+0x538>
    33c4:	f9408fa1 	ldr	x1, [x29, #280]
    33c8:	9105c3a2 	add	x2, x29, #0x170
    33cc:	aa1703e0 	mov	x0, x23
    33d0:	94001a22 	bl	9c58 <__sprint_r>
    33d4:	350043a0 	cbnz	w0, 3c48 <_vfprintf_r+0xda0>
    33d8:	f940c3a0 	ldr	x0, [x29, #384]
    33dc:	d503201f 	nop
    33e0:	b94117a1 	ldr	w1, [x29, #276]
    33e4:	6b1402bf 	cmp	w21, w20
    33e8:	1a94a2b4 	csel	w20, w21, w20, ge  // ge = tcont
    33ec:	0b140021 	add	w1, w1, w20
    33f0:	b90117a1 	str	w1, [x29, #276]
    33f4:	b50041e0 	cbnz	x0, 3c30 <_vfprintf_r+0xd88>
    33f8:	f94087a0 	ldr	x0, [x29, #264]
    33fc:	b9017bbf 	str	wzr, [x29, #376]
    3400:	b4000080 	cbz	x0, 3410 <_vfprintf_r+0x568>
    3404:	f94087a1 	ldr	x1, [x29, #264]
    3408:	aa1703e0 	mov	x0, x23
    340c:	9400109b 	bl	7678 <_free_r>
    3410:	9107c3a6 	add	x6, x29, #0x1f0
    3414:	aa1303fa 	mov	x26, x19
    3418:	17fffee5 	b	2fac <_vfprintf_r+0x104>
    341c:	aa1603e1 	mov	x1, x22
    3420:	aa1703e0 	mov	x0, x23
    3424:	9400090b 	bl	5850 <__swsetup_r>
    3428:	35002b80 	cbnz	w0, 3998 <_vfprintf_r+0xaf0>
    342c:	794022c0 	ldrh	w0, [x22, #16]
    3430:	52800341 	mov	w1, #0x1a                  	// #26
    3434:	0a010000 	and	w0, w0, w1
    3438:	7100281f 	cmp	w0, #0xa
    343c:	54ffd8e1 	b.ne	2f58 <_vfprintf_r+0xb0>  // b.any
    3440:	79c026c0 	ldrsh	w0, [x22, #18]
    3444:	37ffd8a0 	tbnz	w0, #31, 2f58 <_vfprintf_r+0xb0>
    3448:	a9400e62 	ldp	x2, x3, [x19]
    344c:	a9410660 	ldp	x0, x1, [x19, #16]
    3450:	a9120fa2 	stp	x2, x3, [x29, #288]
    3454:	a91307a0 	stp	x0, x1, [x29, #304]
    3458:	910483a3 	add	x3, x29, #0x120
    345c:	aa1a03e2 	mov	x2, x26
    3460:	aa1603e1 	mov	x1, x22
    3464:	aa1703e0 	mov	x0, x23
    3468:	940008c8 	bl	5788 <__sbprintf>
    346c:	b90117a0 	str	w0, [x29, #276]
    3470:	b94117a0 	ldr	w0, [x29, #276]
    3474:	a9407bfd 	ldp	x29, x30, [sp]
    3478:	f9400bf3 	ldr	x19, [sp, #16]
    347c:	a942dff6 	ldp	x22, x23, [sp, #40]
    3480:	f94027fa 	ldr	x26, [sp, #72]
    3484:	9109c3ff 	add	sp, sp, #0x270
    3488:	d65f03c0 	ret
    348c:	78605b00 	ldrh	w0, [x24, w0, uxtw #1]
    3490:	10000061 	adr	x1, 349c <_vfprintf_r+0x5f4>
    3494:	8b20a820 	add	x0, x1, w0, sxth #2
    3498:	d61f0000 	br	x0
    349c:	321c02d6 	orr	w22, w22, #0x10
    34a0:	39400268 	ldrb	w8, [x19]
    34a4:	17fffee7 	b	3040 <_vfprintf_r+0x198>
    34a8:	aa1703e0 	mov	x0, x23
    34ac:	94001017 	bl	7508 <__sinit>
    34b0:	17fffe9a 	b	2f18 <_vfprintf_r+0x70>
    34b4:	f9408fa1 	ldr	x1, [x29, #280]
    34b8:	9105c3a2 	add	x2, x29, #0x170
    34bc:	aa1703e0 	mov	x0, x23
    34c0:	940019e6 	bl	9c58 <__sprint_r>
    34c4:	3500b0a0 	cbnz	w0, 4ad8 <_vfprintf_r+0x1c30>
    34c8:	9107c3a6 	add	x6, x29, #0x1f0
    34cc:	17fffece 	b	3004 <_vfprintf_r+0x15c>
    34d0:	5100c380 	sub	w0, w28, #0x30
    34d4:	52800015 	mov	w21, #0x0                   	// #0
    34d8:	0b150ab5 	add	w21, w21, w21, lsl #2
    34dc:	3840167c 	ldrb	w28, [x19], #1
    34e0:	0b150415 	add	w21, w0, w21, lsl #1
    34e4:	5100c380 	sub	w0, w28, #0x30
    34e8:	7100241f 	cmp	w0, #0x9
    34ec:	54ffff69 	b.ls	34d8 <_vfprintf_r+0x630>  // b.plast
    34f0:	17fffed6 	b	3048 <_vfprintf_r+0x1a0>
    34f4:	aa1903e6 	mov	x6, x25
    34f8:	2a1403e7 	mov	w7, w20
    34fc:	2a1603f9 	mov	w25, w22
    3500:	b94113a0 	ldr	w0, [x29, #272]
    3504:	36280c79 	tbz	w25, #5, 3690 <_vfprintf_r+0x7e8>
    3508:	36f800c0 	tbz	w0, #31, 3520 <_vfprintf_r+0x678>
    350c:	b94113a0 	ldr	w0, [x29, #272]
    3510:	11002001 	add	w1, w0, #0x8
    3514:	7100003f 	cmp	w1, #0x0
    3518:	5400fbed 	b.le	5494 <_vfprintf_r+0x25ec>
    351c:	b90113a1 	str	w1, [x29, #272]
    3520:	f94083a0 	ldr	x0, [x29, #256]
    3524:	91003c01 	add	x1, x0, #0xf
    3528:	927df021 	and	x1, x1, #0xfffffffffffffff8
    352c:	f90083a1 	str	x1, [x29, #256]
    3530:	f9400014 	ldr	x20, [x0]
    3534:	910623a3 	add	x3, x29, #0x188
    3538:	39053fbf 	strb	wzr, [x29, #335]
    353c:	52800020 	mov	w0, #0x1                   	// #1
    3540:	310004ff 	cmn	w7, #0x1
    3544:	91019078 	add	x24, x3, #0x64
    3548:	540086a1 	b.ne	461c <_vfprintf_r+0x1774>  // b.any
    354c:	d503201f 	nop
    3550:	7100041f 	cmp	w0, #0x1
    3554:	540005e0 	b.eq	3610 <_vfprintf_r+0x768>  // b.none
    3558:	7100081f 	cmp	w0, #0x2
    355c:	54009201 	b.ne	479c <_vfprintf_r+0x18f4>  // b.any
    3560:	f94063a1 	ldr	x1, [x29, #192]
    3564:	9101907a 	add	x26, x3, #0x64
    3568:	92400e80 	and	x0, x20, #0xf
    356c:	d344fe94 	lsr	x20, x20, #4
    3570:	38606820 	ldrb	w0, [x1, x0]
    3574:	381fff40 	strb	w0, [x26, #-1]!
    3578:	b5ffff94 	cbnz	x20, 3568 <_vfprintf_r+0x6c0>
    357c:	39453fa1 	ldrb	w1, [x29, #335]
    3580:	4b1a0318 	sub	w24, w24, w26
    3584:	b900e3bf 	str	wzr, [x29, #224]
    3588:	6b07031f 	cmp	w24, w7
    358c:	b900ebbf 	str	wzr, [x29, #232]
    3590:	2a1903f6 	mov	w22, w25
    3594:	b900fbbf 	str	wzr, [x29, #248]
    3598:	1a87a314 	csel	w20, w24, w7, ge  // ge = tcont
    359c:	f90087bf 	str	xzr, [x29, #264]
    35a0:	34ffd741 	cbz	w1, 3088 <_vfprintf_r+0x1e0>
    35a4:	11000694 	add	w20, w20, #0x1
    35a8:	17fffeb8 	b	3088 <_vfprintf_r+0x1e0>
    35ac:	aa1903e6 	mov	x6, x25
    35b0:	2a1403e7 	mov	w7, w20
    35b4:	2a1603f9 	mov	w25, w22
    35b8:	b94113a0 	ldr	w0, [x29, #272]
    35bc:	36281439 	tbz	w25, #5, 3840 <_vfprintf_r+0x998>
    35c0:	36f800c0 	tbz	w0, #31, 35d8 <_vfprintf_r+0x730>
    35c4:	b94113a0 	ldr	w0, [x29, #272]
    35c8:	11002001 	add	w1, w0, #0x8
    35cc:	7100003f 	cmp	w1, #0x0
    35d0:	5400f2ad 	b.le	5424 <_vfprintf_r+0x257c>
    35d4:	b90113a1 	str	w1, [x29, #272]
    35d8:	f94083a0 	ldr	x0, [x29, #256]
    35dc:	91003c01 	add	x1, x0, #0xf
    35e0:	927df021 	and	x1, x1, #0xfffffffffffffff8
    35e4:	f90083a1 	str	x1, [x29, #256]
    35e8:	f9400014 	ldr	x20, [x0]
    35ec:	b6f80094 	tbz	x20, #63, 35fc <_vfprintf_r+0x754>
    35f0:	cb1403f4 	neg	x20, x20
    35f4:	528005a0 	mov	w0, #0x2d                  	// #45
    35f8:	39053fa0 	strb	w0, [x29, #335]
    35fc:	910623a3 	add	x3, x29, #0x188
    3600:	310004ff 	cmn	w7, #0x1
    3604:	91019078 	add	x24, x3, #0x64
    3608:	52800020 	mov	w0, #0x1                   	// #1
    360c:	54008081 	b.ne	461c <_vfprintf_r+0x1774>  // b.any
    3610:	f100269f 	cmp	x20, #0x9
    3614:	54009108 	b.hi	4834 <_vfprintf_r+0x198c>  // b.pmore
    3618:	1100c294 	add	w20, w20, #0x30
    361c:	2a1903f6 	mov	w22, w25
    3620:	3907afb4 	strb	w20, [x29, #491]
    3624:	91018c7a 	add	x26, x3, #0x63
    3628:	52800038 	mov	w24, #0x1                   	// #1
    362c:	14000407 	b	4648 <_vfprintf_r+0x17a0>
    3630:	d0000040 	adrp	x0, d000 <__trunctfdf2+0x290>
    3634:	91152000 	add	x0, x0, #0x548
    3638:	f90063a0 	str	x0, [x29, #192]
    363c:	2a1403e7 	mov	w7, w20
    3640:	aa1903e6 	mov	x6, x25
    3644:	b94113a0 	ldr	w0, [x29, #272]
    3648:	36280656 	tbz	w22, #5, 3710 <_vfprintf_r+0x868>
    364c:	36f800c0 	tbz	w0, #31, 3664 <_vfprintf_r+0x7bc>
    3650:	b94113a0 	ldr	w0, [x29, #272]
    3654:	11002001 	add	w1, w0, #0x8
    3658:	7100003f 	cmp	w1, #0x0
    365c:	5400eced 	b.le	53f8 <_vfprintf_r+0x2550>
    3660:	b90113a1 	str	w1, [x29, #272]
    3664:	f94083a0 	ldr	x0, [x29, #256]
    3668:	91003c01 	add	x1, x0, #0xf
    366c:	927df021 	and	x1, x1, #0xfffffffffffffff8
    3670:	f90083a1 	str	x1, [x29, #256]
    3674:	f9400014 	ldr	x20, [x0]
    3678:	14000389 	b	449c <_vfprintf_r+0x15f4>
    367c:	aa1903e6 	mov	x6, x25
    3680:	2a1403e7 	mov	w7, w20
    3684:	321c02d9 	orr	w25, w22, #0x10
    3688:	b94113a0 	ldr	w0, [x29, #272]
    368c:	372ff3f9 	tbnz	w25, #5, 3508 <_vfprintf_r+0x660>
    3690:	3727f3d9 	tbnz	w25, #4, 3508 <_vfprintf_r+0x660>
    3694:	36306e59 	tbz	w25, #6, 445c <_vfprintf_r+0x15b4>
    3698:	36f800c0 	tbz	w0, #31, 36b0 <_vfprintf_r+0x808>
    369c:	b94113a0 	ldr	w0, [x29, #272]
    36a0:	11002001 	add	w1, w0, #0x8
    36a4:	7100003f 	cmp	w1, #0x0
    36a8:	540102ed 	b.le	5704 <_vfprintf_r+0x285c>
    36ac:	b90113a1 	str	w1, [x29, #272]
    36b0:	f94083a0 	ldr	x0, [x29, #256]
    36b4:	91002c01 	add	x1, x0, #0xb
    36b8:	927df021 	and	x1, x1, #0xfffffffffffffff8
    36bc:	f90083a1 	str	x1, [x29, #256]
    36c0:	79400014 	ldrh	w20, [x0]
    36c4:	52800020 	mov	w0, #0x1                   	// #1
    36c8:	140003d0 	b	4608 <_vfprintf_r+0x1760>
    36cc:	39400268 	ldrb	w8, [x19]
    36d0:	7101a11f 	cmp	w8, #0x68
    36d4:	54005bc0 	b.eq	424c <_vfprintf_r+0x13a4>  // b.none
    36d8:	321a02d6 	orr	w22, w22, #0x40
    36dc:	17fffe59 	b	3040 <_vfprintf_r+0x198>
    36e0:	39400268 	ldrb	w8, [x19]
    36e4:	7101b11f 	cmp	w8, #0x6c
    36e8:	54005ba0 	b.eq	425c <_vfprintf_r+0x13b4>  // b.none
    36ec:	321c02d6 	orr	w22, w22, #0x10
    36f0:	17fffe54 	b	3040 <_vfprintf_r+0x198>
    36f4:	d0000040 	adrp	x0, d000 <__trunctfdf2+0x290>
    36f8:	91158000 	add	x0, x0, #0x560
    36fc:	f90063a0 	str	x0, [x29, #192]
    3700:	2a1403e7 	mov	w7, w20
    3704:	aa1903e6 	mov	x6, x25
    3708:	b94113a0 	ldr	w0, [x29, #272]
    370c:	372ffa16 	tbnz	w22, #5, 364c <_vfprintf_r+0x7a4>
    3710:	3727f9f6 	tbnz	w22, #4, 364c <_vfprintf_r+0x7a4>
    3714:	36306b76 	tbz	w22, #6, 4480 <_vfprintf_r+0x15d8>
    3718:	36f800c0 	tbz	w0, #31, 3730 <_vfprintf_r+0x888>
    371c:	b94113a0 	ldr	w0, [x29, #272]
    3720:	11002001 	add	w1, w0, #0x8
    3724:	7100003f 	cmp	w1, #0x0
    3728:	5401004d 	b.le	5730 <_vfprintf_r+0x2888>
    372c:	b90113a1 	str	w1, [x29, #272]
    3730:	f94083a0 	ldr	x0, [x29, #256]
    3734:	91002c01 	add	x1, x0, #0xb
    3738:	927df021 	and	x1, x1, #0xfffffffffffffff8
    373c:	79400014 	ldrh	w20, [x0]
    3740:	f90083a1 	str	x1, [x29, #256]
    3744:	14000356 	b	449c <_vfprintf_r+0x15f4>
    3748:	52800560 	mov	w0, #0x2b                  	// #43
    374c:	39400268 	ldrb	w8, [x19]
    3750:	39053fa0 	strb	w0, [x29, #335]
    3754:	17fffe3b 	b	3040 <_vfprintf_r+0x198>
    3758:	39400268 	ldrb	w8, [x19]
    375c:	321e02d6 	orr	w22, w22, #0x4
    3760:	17fffe38 	b	3040 <_vfprintf_r+0x198>
    3764:	3940027c 	ldrb	w28, [x19]
    3768:	91000660 	add	x0, x19, #0x1
    376c:	7100ab9f 	cmp	w28, #0x2a
    3770:	5400e160 	b.eq	539c <_vfprintf_r+0x24f4>  // b.none
    3774:	aa0003f3 	mov	x19, x0
    3778:	5100c380 	sub	w0, w28, #0x30
    377c:	7100241f 	cmp	w0, #0x9
    3780:	52800014 	mov	w20, #0x0                   	// #0
    3784:	54ffc628 	b.hi	3048 <_vfprintf_r+0x1a0>  // b.pmore
    3788:	0b140a87 	add	w7, w20, w20, lsl #2
    378c:	3840167c 	ldrb	w28, [x19], #1
    3790:	0b070414 	add	w20, w0, w7, lsl #1
    3794:	5100c380 	sub	w0, w28, #0x30
    3798:	7100241f 	cmp	w0, #0x9
    379c:	54ffff69 	b.ls	3788 <_vfprintf_r+0x8e0>  // b.plast
    37a0:	17fffe2a 	b	3048 <_vfprintf_r+0x1a0>
    37a4:	2a1403e7 	mov	w7, w20
    37a8:	aa1903e6 	mov	x6, x25
    37ac:	b940aba0 	ldr	w0, [x29, #168]
    37b0:	36189af6 	tbz	w22, #3, 4b0c <_vfprintf_r+0x1c64>
    37b4:	37f8dd00 	tbnz	w0, #31, 5354 <_vfprintf_r+0x24ac>
    37b8:	f94083a0 	ldr	x0, [x29, #256]
    37bc:	91003c00 	add	x0, x0, #0xf
    37c0:	927cec00 	and	x0, x0, #0xfffffffffffffff0
    37c4:	91004001 	add	x1, x0, #0x10
    37c8:	f90083a1 	str	x1, [x29, #256]
    37cc:	140006ec 	b	537c <_vfprintf_r+0x24d4>
    37d0:	321902d6 	orr	w22, w22, #0x80
    37d4:	39400268 	ldrb	w8, [x19]
    37d8:	17fffe1a 	b	3040 <_vfprintf_r+0x198>
    37dc:	321d02d6 	orr	w22, w22, #0x8
    37e0:	39400268 	ldrb	w8, [x19]
    37e4:	17fffe17 	b	3040 <_vfprintf_r+0x198>
    37e8:	2a1403e7 	mov	w7, w20
    37ec:	aa1903e6 	mov	x6, x25
    37f0:	321c02d6 	orr	w22, w22, #0x10
    37f4:	b94113a0 	ldr	w0, [x29, #272]
    37f8:	36280a36 	tbz	w22, #5, 393c <_vfprintf_r+0xa94>
    37fc:	36f800c0 	tbz	w0, #31, 3814 <_vfprintf_r+0x96c>
    3800:	b94113a0 	ldr	w0, [x29, #272]
    3804:	11002001 	add	w1, w0, #0x8
    3808:	7100003f 	cmp	w1, #0x0
    380c:	5400d98d 	b.le	533c <_vfprintf_r+0x2494>
    3810:	b90113a1 	str	w1, [x29, #272]
    3814:	f94083a0 	ldr	x0, [x29, #256]
    3818:	91003c01 	add	x1, x0, #0xf
    381c:	927df021 	and	x1, x1, #0xfffffffffffffff8
    3820:	f90083a1 	str	x1, [x29, #256]
    3824:	f9400014 	ldr	x20, [x0]
    3828:	140003ab 	b	46d4 <_vfprintf_r+0x182c>
    382c:	aa1903e6 	mov	x6, x25
    3830:	2a1403e7 	mov	w7, w20
    3834:	321c02d9 	orr	w25, w22, #0x10
    3838:	b94113a0 	ldr	w0, [x29, #272]
    383c:	372fec39 	tbnz	w25, #5, 35c0 <_vfprintf_r+0x718>
    3840:	3727ec19 	tbnz	w25, #4, 35c0 <_vfprintf_r+0x718>
    3844:	36305299 	tbz	w25, #6, 4294 <_vfprintf_r+0x13ec>
    3848:	36f800c0 	tbz	w0, #31, 3860 <_vfprintf_r+0x9b8>
    384c:	b94113a0 	ldr	w0, [x29, #272]
    3850:	11002001 	add	w1, w0, #0x8
    3854:	7100003f 	cmp	w1, #0x0
    3858:	5400e98d 	b.le	5588 <_vfprintf_r+0x26e0>
    385c:	b90113a1 	str	w1, [x29, #272]
    3860:	f94083a0 	ldr	x0, [x29, #256]
    3864:	91002c01 	add	x1, x0, #0xb
    3868:	927df021 	and	x1, x1, #0xfffffffffffffff8
    386c:	79800014 	ldrsh	x20, [x0]
    3870:	f90083a1 	str	x1, [x29, #256]
    3874:	17ffff5e 	b	35ec <_vfprintf_r+0x744>
    3878:	39453fa0 	ldrb	w0, [x29, #335]
    387c:	39400268 	ldrb	w8, [x19]
    3880:	35ffbe00 	cbnz	w0, 3040 <_vfprintf_r+0x198>
    3884:	52800400 	mov	w0, #0x20                  	// #32
    3888:	39053fa0 	strb	w0, [x29, #335]
    388c:	17fffded 	b	3040 <_vfprintf_r+0x198>
    3890:	320002d6 	orr	w22, w22, #0x1
    3894:	39400268 	ldrb	w8, [x19]
    3898:	17fffdea 	b	3040 <_vfprintf_r+0x198>
    389c:	aa1703e0 	mov	x0, x23
    38a0:	940010c6 	bl	7bb8 <_localeconv_r>
    38a4:	f9400400 	ldr	x0, [x0, #8]
    38a8:	f9005ba0 	str	x0, [x29, #176]
    38ac:	94001835 	bl	9980 <strlen>
    38b0:	aa0003fc 	mov	x28, x0
    38b4:	aa1703e0 	mov	x0, x23
    38b8:	f9004fbc 	str	x28, [x29, #152]
    38bc:	940010bf 	bl	7bb8 <_localeconv_r>
    38c0:	f9400800 	ldr	x0, [x0, #16]
    38c4:	f90053a0 	str	x0, [x29, #160]
    38c8:	f100039f 	cmp	x28, #0x0
    38cc:	fa401804 	ccmp	x0, #0x0, #0x4, ne  // ne = any
    38d0:	54004240 	b.eq	4118 <_vfprintf_r+0x1270>  // b.none
    38d4:	39400000 	ldrb	w0, [x0]
    38d8:	39400268 	ldrb	w8, [x19]
    38dc:	7100001f 	cmp	w0, #0x0
    38e0:	321602c0 	orr	w0, w22, #0x400
    38e4:	1a961016 	csel	w22, w0, w22, ne  // ne = any
    38e8:	17fffdd6 	b	3040 <_vfprintf_r+0x198>
    38ec:	aa1903e6 	mov	x6, x25
    38f0:	b94113a0 	ldr	w0, [x29, #272]
    38f4:	36284176 	tbz	w22, #5, 4120 <_vfprintf_r+0x1278>
    38f8:	37f8de40 	tbnz	w0, #31, 54c0 <_vfprintf_r+0x2618>
    38fc:	f94083a0 	ldr	x0, [x29, #256]
    3900:	91003c01 	add	x1, x0, #0xf
    3904:	927df021 	and	x1, x1, #0xfffffffffffffff8
    3908:	f90083a1 	str	x1, [x29, #256]
    390c:	f9400000 	ldr	x0, [x0]
    3910:	aa1303fa 	mov	x26, x19
    3914:	b98117a1 	ldrsw	x1, [x29, #276]
    3918:	f9000001 	str	x1, [x0]
    391c:	17fffda4 	b	2fac <_vfprintf_r+0x104>
    3920:	321b02d6 	orr	w22, w22, #0x20
    3924:	39400268 	ldrb	w8, [x19]
    3928:	17fffdc6 	b	3040 <_vfprintf_r+0x198>
    392c:	2a1403e7 	mov	w7, w20
    3930:	aa1903e6 	mov	x6, x25
    3934:	b94113a0 	ldr	w0, [x29, #272]
    3938:	372ff636 	tbnz	w22, #5, 37fc <_vfprintf_r+0x954>
    393c:	3727f616 	tbnz	w22, #4, 37fc <_vfprintf_r+0x954>
    3940:	36305bd6 	tbz	w22, #6, 44b8 <_vfprintf_r+0x1610>
    3944:	36f800c0 	tbz	w0, #31, 395c <_vfprintf_r+0xab4>
    3948:	b94113a0 	ldr	w0, [x29, #272]
    394c:	11002001 	add	w1, w0, #0x8
    3950:	7100003f 	cmp	w1, #0x0
    3954:	5400ee2d 	b.le	5718 <_vfprintf_r+0x2870>
    3958:	b90113a1 	str	w1, [x29, #272]
    395c:	f94083a0 	ldr	x0, [x29, #256]
    3960:	91002c01 	add	x1, x0, #0xb
    3964:	927df021 	and	x1, x1, #0xfffffffffffffff8
    3968:	79400014 	ldrh	w20, [x0]
    396c:	f90083a1 	str	x1, [x29, #256]
    3970:	14000359 	b	46d4 <_vfprintf_r+0x182c>
    3974:	f940c3a0 	ldr	x0, [x29, #384]
    3978:	f9408fb6 	ldr	x22, [x29, #280]
    397c:	b5006f40 	cbnz	x0, 4764 <_vfprintf_r+0x18bc>
    3980:	794022c0 	ldrh	w0, [x22, #16]
    3984:	a941d7b4 	ldp	x20, x21, [x29, #24]
    3988:	a943e7b8 	ldp	x24, x25, [x29, #56]
    398c:	a94573bb 	ldp	x27, x28, [x29, #80]
    3990:	fd4033a8 	ldr	d8, [x29, #96]
    3994:	3637d6e0 	tbz	w0, #6, 3470 <_vfprintf_r+0x5c8>
    3998:	12800000 	mov	w0, #0xffffffff            	// #-1
    399c:	b90117a0 	str	w0, [x29, #276]
    39a0:	17fffeb4 	b	3470 <_vfprintf_r+0x5c8>
    39a4:	f9408fa1 	ldr	x1, [x29, #280]
    39a8:	9105c3a2 	add	x2, x29, #0x170
    39ac:	aa1703e0 	mov	x0, x23
    39b0:	b90083a7 	str	w7, [x29, #128]
    39b4:	b9008baa 	str	w10, [x29, #136]
    39b8:	940018a8 	bl	9c58 <__sprint_r>
    39bc:	35001460 	cbnz	w0, 3c48 <_vfprintf_r+0xda0>
    39c0:	9107c3a6 	add	x6, x29, #0x1f0
    39c4:	b94083a7 	ldr	w7, [x29, #128]
    39c8:	b9408baa 	ldr	w10, [x29, #136]
    39cc:	f940c3a0 	ldr	x0, [x29, #384]
    39d0:	17fffdf7 	b	31ac <_vfprintf_r+0x304>
    39d4:	b940f3a1 	ldr	w1, [x29, #240]
    39d8:	91000400 	add	x0, x0, #0x1
    39dc:	b9417ba4 	ldr	w4, [x29, #376]
    39e0:	910040c2 	add	x2, x6, #0x10
    39e4:	7100043f 	cmp	w1, #0x1
    39e8:	f90000da 	str	x26, [x6]
    39ec:	11000481 	add	w1, w4, #0x1
    39f0:	b9017ba1 	str	w1, [x29, #376]
    39f4:	540024ad 	b.le	3e88 <_vfprintf_r+0xfe0>
    39f8:	d2800024 	mov	x4, #0x1                   	// #1
    39fc:	f900c3a0 	str	x0, [x29, #384]
    3a00:	f90004c4 	str	x4, [x6, #8]
    3a04:	71001c3f 	cmp	w1, #0x7
    3a08:	540034cc 	b.gt	40a0 <_vfprintf_r+0x11f8>
    3a0c:	f9406fa3 	ldr	x3, [x29, #216]
    3a10:	11000421 	add	w1, w1, #0x1
    3a14:	f94067a4 	ldr	x4, [x29, #200]
    3a18:	71001c3f 	cmp	w1, #0x7
    3a1c:	8b030000 	add	x0, x0, x3
    3a20:	a9000c44 	stp	x4, x3, [x2]
    3a24:	b9017ba1 	str	w1, [x29, #376]
    3a28:	f900c3a0 	str	x0, [x29, #384]
    3a2c:	540034cc 	b.gt	40c4 <_vfprintf_r+0x121c>
    3a30:	91004042 	add	x2, x2, #0x10
    3a34:	1e602108 	fcmp	d8, #0.0
    3a38:	b940f3a3 	ldr	w3, [x29, #240]
    3a3c:	11000424 	add	w4, w1, #0x1
    3a40:	91004046 	add	x6, x2, #0x10
    3a44:	51000478 	sub	w24, w3, #0x1
    3a48:	54001940 	b.eq	3d70 <_vfprintf_r+0xec8>  // b.none
    3a4c:	93407f18 	sxtw	x24, w24
    3a50:	91000743 	add	x3, x26, #0x1
    3a54:	8b180000 	add	x0, x0, x24
    3a58:	a9006043 	stp	x3, x24, [x2]
    3a5c:	b9017ba4 	str	w4, [x29, #376]
    3a60:	71001c9f 	cmp	w4, #0x7
    3a64:	f900c3a0 	str	x0, [x29, #384]
    3a68:	5400340c 	b.gt	40e8 <_vfprintf_r+0x1240>
    3a6c:	91008043 	add	x3, x2, #0x20
    3a70:	11000824 	add	w4, w1, #0x2
    3a74:	aa0603e2 	mov	x2, x6
    3a78:	aa0303e6 	mov	x6, x3
    3a7c:	b980afa1 	ldrsw	x1, [x29, #172]
    3a80:	71001c9f 	cmp	w4, #0x7
    3a84:	f9000441 	str	x1, [x2, #8]
    3a88:	8b000020 	add	x0, x1, x0
    3a8c:	b9017ba4 	str	w4, [x29, #376]
    3a90:	910583a1 	add	x1, x29, #0x160
    3a94:	f900c3a0 	str	x0, [x29, #384]
    3a98:	f9000041 	str	x1, [x2]
    3a9c:	54ffc3cd 	b.le	3314 <_vfprintf_r+0x46c>
    3aa0:	f9408fa1 	ldr	x1, [x29, #280]
    3aa4:	9105c3a2 	add	x2, x29, #0x170
    3aa8:	aa1703e0 	mov	x0, x23
    3aac:	9400186b 	bl	9c58 <__sprint_r>
    3ab0:	35000cc0 	cbnz	w0, 3c48 <_vfprintf_r+0xda0>
    3ab4:	9107c3a6 	add	x6, x29, #0x1f0
    3ab8:	f940c3a0 	ldr	x0, [x29, #384]
    3abc:	17fffe16 	b	3314 <_vfprintf_r+0x46c>
    3ac0:	7101979f 	cmp	w28, #0x65
    3ac4:	54fff88d 	b.le	39d4 <_vfprintf_r+0xb2c>
    3ac8:	1e602108 	fcmp	d8, #0.0
    3acc:	54000ea1 	b.ne	3ca0 <_vfprintf_r+0xdf8>  // b.any
    3ad0:	91000400 	add	x0, x0, #0x1
    3ad4:	f900c3a0 	str	x0, [x29, #384]
    3ad8:	b9417ba0 	ldr	w0, [x29, #376]
    3adc:	910040c6 	add	x6, x6, #0x10
    3ae0:	11000400 	add	w0, w0, #0x1
    3ae4:	b9017ba0 	str	w0, [x29, #376]
    3ae8:	71001c1f 	cmp	w0, #0x7
    3aec:	d0000040 	adrp	x0, d000 <__trunctfdf2+0x290>
    3af0:	91160000 	add	x0, x0, #0x580
    3af4:	f81f00c0 	stur	x0, [x6, #-16]
    3af8:	d2800020 	mov	x0, #0x1                   	// #1
    3afc:	f81f80c0 	stur	x0, [x6, #-8]
    3b00:	5400378c 	b.gt	41f0 <_vfprintf_r+0x1348>
    3b04:	b940f3a1 	ldr	w1, [x29, #240]
    3b08:	b9415ba0 	ldr	w0, [x29, #344]
    3b0c:	6b01001f 	cmp	w0, w1
    3b10:	5400168b 	b.lt	3de0 <_vfprintf_r+0xf38>  // b.tstop
    3b14:	37001676 	tbnz	w22, #0, 3de0 <_vfprintf_r+0xf38>
    3b18:	f940c3a0 	ldr	x0, [x29, #384]
    3b1c:	17fffdfe 	b	3314 <_vfprintf_r+0x46c>
    3b20:	4b1402b9 	sub	w25, w21, w20
    3b24:	7100033f 	cmp	w25, #0x0
    3b28:	54ffb60d 	b.le	31e8 <_vfprintf_r+0x340>
    3b2c:	7100433f 	cmp	w25, #0x10
    3b30:	b9417ba1 	ldr	w1, [x29, #376]
    3b34:	5400050d 	b.le	3bd4 <_vfprintf_r+0xd2c>
    3b38:	f90047b3 	str	x19, [x29, #136]
    3b3c:	d2800204 	mov	x4, #0x10                  	// #16
    3b40:	2a1903f3 	mov	w19, w25
    3b44:	2a1403f9 	mov	w25, w20
    3b48:	aa1b03f4 	mov	x20, x27
    3b4c:	aa1a03fb 	mov	x27, x26
    3b50:	2a1803fa 	mov	w26, w24
    3b54:	2a0703f8 	mov	w24, w7
    3b58:	14000005 	b	3b6c <_vfprintf_r+0xcc4>
    3b5c:	51004273 	sub	w19, w19, #0x10
    3b60:	910040c6 	add	x6, x6, #0x10
    3b64:	7100427f 	cmp	w19, #0x10
    3b68:	5400028d 	b.le	3bb8 <_vfprintf_r+0xd10>
    3b6c:	11000421 	add	w1, w1, #0x1
    3b70:	91004000 	add	x0, x0, #0x10
    3b74:	a90010d4 	stp	x20, x4, [x6]
    3b78:	71001c3f 	cmp	w1, #0x7
    3b7c:	b9017ba1 	str	w1, [x29, #376]
    3b80:	f900c3a0 	str	x0, [x29, #384]
    3b84:	54fffecd 	b.le	3b5c <_vfprintf_r+0xcb4>
    3b88:	f9408fa1 	ldr	x1, [x29, #280]
    3b8c:	9105c3a2 	add	x2, x29, #0x170
    3b90:	aa1703e0 	mov	x0, x23
    3b94:	94001831 	bl	9c58 <__sprint_r>
    3b98:	35000580 	cbnz	w0, 3c48 <_vfprintf_r+0xda0>
    3b9c:	51004273 	sub	w19, w19, #0x10
    3ba0:	9107c3a6 	add	x6, x29, #0x1f0
    3ba4:	d2800204 	mov	x4, #0x10                  	// #16
    3ba8:	b9417ba1 	ldr	w1, [x29, #376]
    3bac:	f940c3a0 	ldr	x0, [x29, #384]
    3bb0:	7100427f 	cmp	w19, #0x10
    3bb4:	54fffdcc 	b.gt	3b6c <_vfprintf_r+0xcc4>
    3bb8:	2a1803e7 	mov	w7, w24
    3bbc:	2a1a03f8 	mov	w24, w26
    3bc0:	aa1b03fa 	mov	x26, x27
    3bc4:	aa1403fb 	mov	x27, x20
    3bc8:	2a1903f4 	mov	w20, w25
    3bcc:	2a1303f9 	mov	w25, w19
    3bd0:	f94047b3 	ldr	x19, [x29, #136]
    3bd4:	11000421 	add	w1, w1, #0x1
    3bd8:	93407f39 	sxtw	x25, w25
    3bdc:	71001c3f 	cmp	w1, #0x7
    3be0:	b9017ba1 	str	w1, [x29, #376]
    3be4:	d0000041 	adrp	x1, d000 <__trunctfdf2+0x290>
    3be8:	910c0021 	add	x1, x1, #0x300
    3bec:	8b190000 	add	x0, x0, x25
    3bf0:	f90004d9 	str	x25, [x6, #8]
    3bf4:	91004021 	add	x1, x1, #0x10
    3bf8:	f900c3a0 	str	x0, [x29, #384]
    3bfc:	f90000c1 	str	x1, [x6]
    3c00:	910040c6 	add	x6, x6, #0x10
    3c04:	54ffaf2d 	b.le	31e8 <_vfprintf_r+0x340>
    3c08:	f9408fa1 	ldr	x1, [x29, #280]
    3c0c:	9105c3a2 	add	x2, x29, #0x170
    3c10:	aa1703e0 	mov	x0, x23
    3c14:	b9008ba7 	str	w7, [x29, #136]
    3c18:	94001810 	bl	9c58 <__sprint_r>
    3c1c:	35000160 	cbnz	w0, 3c48 <_vfprintf_r+0xda0>
    3c20:	9107c3a6 	add	x6, x29, #0x1f0
    3c24:	b9408ba7 	ldr	w7, [x29, #136]
    3c28:	f940c3a0 	ldr	x0, [x29, #384]
    3c2c:	17fffd6f 	b	31e8 <_vfprintf_r+0x340>
    3c30:	f9408fa1 	ldr	x1, [x29, #280]
    3c34:	9105c3a2 	add	x2, x29, #0x170
    3c38:	aa1703e0 	mov	x0, x23
    3c3c:	94001807 	bl	9c58 <__sprint_r>
    3c40:	34ffbdc0 	cbz	w0, 33f8 <_vfprintf_r+0x550>
    3c44:	d503201f 	nop
    3c48:	f9408fb6 	ldr	x22, [x29, #280]
    3c4c:	f94087a1 	ldr	x1, [x29, #264]
    3c50:	b4ffe981 	cbz	x1, 3980 <_vfprintf_r+0xad8>
    3c54:	aa1703e0 	mov	x0, x23
    3c58:	94000e88 	bl	7678 <_free_r>
    3c5c:	794022c0 	ldrh	w0, [x22, #16]
    3c60:	a941d7b4 	ldp	x20, x21, [x29, #24]
    3c64:	a943e7b8 	ldp	x24, x25, [x29, #56]
    3c68:	a94573bb 	ldp	x27, x28, [x29, #80]
    3c6c:	fd4033a8 	ldr	d8, [x29, #96]
    3c70:	3637c000 	tbz	w0, #6, 3470 <_vfprintf_r+0x5c8>
    3c74:	17ffff49 	b	3998 <_vfprintf_r+0xaf0>
    3c78:	f9408fa1 	ldr	x1, [x29, #280]
    3c7c:	9105c3a2 	add	x2, x29, #0x170
    3c80:	aa1703e0 	mov	x0, x23
    3c84:	b9008ba7 	str	w7, [x29, #136]
    3c88:	940017f4 	bl	9c58 <__sprint_r>
    3c8c:	35fffde0 	cbnz	w0, 3c48 <_vfprintf_r+0xda0>
    3c90:	9107c3a6 	add	x6, x29, #0x1f0
    3c94:	b9408ba7 	ldr	w7, [x29, #136]
    3c98:	f940c3a0 	ldr	x0, [x29, #384]
    3c9c:	17fffd51 	b	31e0 <_vfprintf_r+0x338>
    3ca0:	b9415ba2 	ldr	w2, [x29, #344]
    3ca4:	7100005f 	cmp	w2, #0x0
    3ca8:	5400256d 	b.le	4154 <_vfprintf_r+0x12ac>
    3cac:	b940f3a2 	ldr	w2, [x29, #240]
    3cb0:	b940fba1 	ldr	w1, [x29, #248]
    3cb4:	6b02003f 	cmp	w1, w2
    3cb8:	1a82d038 	csel	w24, w1, w2, le
    3cbc:	7100031f 	cmp	w24, #0x0
    3cc0:	5400018d 	b.le	3cf0 <_vfprintf_r+0xe48>
    3cc4:	b9417ba1 	ldr	w1, [x29, #376]
    3cc8:	910040c6 	add	x6, x6, #0x10
    3ccc:	f81f00da 	stur	x26, [x6, #-16]
    3cd0:	11000421 	add	w1, w1, #0x1
    3cd4:	b9017ba1 	str	w1, [x29, #376]
    3cd8:	71001c3f 	cmp	w1, #0x7
    3cdc:	93407f01 	sxtw	x1, w24
    3ce0:	8b010000 	add	x0, x0, x1
    3ce4:	f81f80c1 	stur	x1, [x6, #-8]
    3ce8:	f900c3a0 	str	x0, [x29, #384]
    3cec:	540063cc 	b.gt	4964 <_vfprintf_r+0x1abc>
    3cf0:	7100031f 	cmp	w24, #0x0
    3cf4:	b940fba1 	ldr	w1, [x29, #248]
    3cf8:	1a9fa318 	csel	w24, w24, wzr, ge  // ge = tcont
    3cfc:	4b180038 	sub	w24, w1, w24
    3d00:	7100031f 	cmp	w24, #0x0
    3d04:	5400116d 	b.le	3f30 <_vfprintf_r+0x1088>
    3d08:	7100431f 	cmp	w24, #0x10
    3d0c:	b9417ba1 	ldr	w1, [x29, #376]
    3d10:	54000e8d 	b.le	3ee0 <_vfprintf_r+0x1038>
    3d14:	d2800219 	mov	x25, #0x10                  	// #16
    3d18:	f9408fbc 	ldr	x28, [x29, #280]
    3d1c:	14000005 	b	3d30 <_vfprintf_r+0xe88>
    3d20:	910040c6 	add	x6, x6, #0x10
    3d24:	51004318 	sub	w24, w24, #0x10
    3d28:	7100431f 	cmp	w24, #0x10
    3d2c:	54000dad 	b.le	3ee0 <_vfprintf_r+0x1038>
    3d30:	11000421 	add	w1, w1, #0x1
    3d34:	91004000 	add	x0, x0, #0x10
    3d38:	a90064db 	stp	x27, x25, [x6]
    3d3c:	71001c3f 	cmp	w1, #0x7
    3d40:	b9017ba1 	str	w1, [x29, #376]
    3d44:	f900c3a0 	str	x0, [x29, #384]
    3d48:	54fffecd 	b.le	3d20 <_vfprintf_r+0xe78>
    3d4c:	9105c3a2 	add	x2, x29, #0x170
    3d50:	aa1c03e1 	mov	x1, x28
    3d54:	aa1703e0 	mov	x0, x23
    3d58:	940017c0 	bl	9c58 <__sprint_r>
    3d5c:	35006460 	cbnz	w0, 49e8 <_vfprintf_r+0x1b40>
    3d60:	9107c3a6 	add	x6, x29, #0x1f0
    3d64:	b9417ba1 	ldr	w1, [x29, #376]
    3d68:	f940c3a0 	ldr	x0, [x29, #384]
    3d6c:	17ffffee 	b	3d24 <_vfprintf_r+0xe7c>
    3d70:	7100031f 	cmp	w24, #0x0
    3d74:	54ffe84d 	b.le	3a7c <_vfprintf_r+0xbd4>
    3d78:	7100431f 	cmp	w24, #0x10
    3d7c:	54006b2d 	b.le	4ae0 <_vfprintf_r+0x1c38>
    3d80:	d2800219 	mov	x25, #0x10                  	// #16
    3d84:	2a0403e1 	mov	w1, w4
    3d88:	f9408fba 	ldr	x26, [x29, #280]
    3d8c:	14000006 	b	3da4 <_vfprintf_r+0xefc>
    3d90:	91004042 	add	x2, x2, #0x10
    3d94:	51004318 	sub	w24, w24, #0x10
    3d98:	7100431f 	cmp	w24, #0x10
    3d9c:	5400238d 	b.le	420c <_vfprintf_r+0x1364>
    3da0:	11000421 	add	w1, w1, #0x1
    3da4:	91004000 	add	x0, x0, #0x10
    3da8:	a900645b 	stp	x27, x25, [x2]
    3dac:	b9017ba1 	str	w1, [x29, #376]
    3db0:	71001c3f 	cmp	w1, #0x7
    3db4:	f900c3a0 	str	x0, [x29, #384]
    3db8:	54fffecd 	b.le	3d90 <_vfprintf_r+0xee8>
    3dbc:	9105c3a2 	add	x2, x29, #0x170
    3dc0:	aa1a03e1 	mov	x1, x26
    3dc4:	aa1703e0 	mov	x0, x23
    3dc8:	940017a4 	bl	9c58 <__sprint_r>
    3dcc:	35002600 	cbnz	w0, 428c <_vfprintf_r+0x13e4>
    3dd0:	9107c3a2 	add	x2, x29, #0x1f0
    3dd4:	b9417ba1 	ldr	w1, [x29, #376]
    3dd8:	f940c3a0 	ldr	x0, [x29, #384]
    3ddc:	17ffffee 	b	3d94 <_vfprintf_r+0xeec>
    3de0:	f94067a0 	ldr	x0, [x29, #200]
    3de4:	f9406fa1 	ldr	x1, [x29, #216]
    3de8:	a90004c0 	stp	x0, x1, [x6]
    3dec:	910040c6 	add	x6, x6, #0x10
    3df0:	b9417ba0 	ldr	w0, [x29, #376]
    3df4:	11000400 	add	w0, w0, #0x1
    3df8:	b9017ba0 	str	w0, [x29, #376]
    3dfc:	71001c1f 	cmp	w0, #0x7
    3e00:	f940c3a0 	ldr	x0, [x29, #384]
    3e04:	8b000020 	add	x0, x1, x0
    3e08:	f900c3a0 	str	x0, [x29, #384]
    3e0c:	5400230c 	b.gt	426c <_vfprintf_r+0x13c4>
    3e10:	b940f3a1 	ldr	w1, [x29, #240]
    3e14:	51000438 	sub	w24, w1, #0x1
    3e18:	7100031f 	cmp	w24, #0x0
    3e1c:	54ffa7cd 	b.le	3314 <_vfprintf_r+0x46c>
    3e20:	7100431f 	cmp	w24, #0x10
    3e24:	b9417ba1 	ldr	w1, [x29, #376]
    3e28:	5400120d 	b.le	4068 <_vfprintf_r+0x11c0>
    3e2c:	d2800219 	mov	x25, #0x10                  	// #16
    3e30:	f9408fba 	ldr	x26, [x29, #280]
    3e34:	14000005 	b	3e48 <_vfprintf_r+0xfa0>
    3e38:	910040c6 	add	x6, x6, #0x10
    3e3c:	51004318 	sub	w24, w24, #0x10
    3e40:	7100431f 	cmp	w24, #0x10
    3e44:	5400112d 	b.le	4068 <_vfprintf_r+0x11c0>
    3e48:	11000421 	add	w1, w1, #0x1
    3e4c:	91004000 	add	x0, x0, #0x10
    3e50:	a90064db 	stp	x27, x25, [x6]
    3e54:	71001c3f 	cmp	w1, #0x7
    3e58:	b9017ba1 	str	w1, [x29, #376]
    3e5c:	f900c3a0 	str	x0, [x29, #384]
    3e60:	54fffecd 	b.le	3e38 <_vfprintf_r+0xf90>
    3e64:	9105c3a2 	add	x2, x29, #0x170
    3e68:	aa1a03e1 	mov	x1, x26
    3e6c:	aa1703e0 	mov	x0, x23
    3e70:	9400177a 	bl	9c58 <__sprint_r>
    3e74:	350020c0 	cbnz	w0, 428c <_vfprintf_r+0x13e4>
    3e78:	9107c3a6 	add	x6, x29, #0x1f0
    3e7c:	b9417ba1 	ldr	w1, [x29, #376]
    3e80:	f940c3a0 	ldr	x0, [x29, #384]
    3e84:	17ffffee 	b	3e3c <_vfprintf_r+0xf94>
    3e88:	3707db96 	tbnz	w22, #0, 39f8 <_vfprintf_r+0xb50>
    3e8c:	71001c3f 	cmp	w1, #0x7
    3e90:	f900c3a0 	str	x0, [x29, #384]
    3e94:	d2800021 	mov	x1, #0x1                   	// #1
    3e98:	f90004c1 	str	x1, [x6, #8]
    3e9c:	5400126c 	b.gt	40e8 <_vfprintf_r+0x1240>
    3ea0:	11000884 	add	w4, w4, #0x2
    3ea4:	910080c6 	add	x6, x6, #0x20
    3ea8:	17fffef5 	b	3a7c <_vfprintf_r+0xbd4>
    3eac:	f9408fa1 	ldr	x1, [x29, #280]
    3eb0:	9105c3a2 	add	x2, x29, #0x170
    3eb4:	aa1703e0 	mov	x0, x23
    3eb8:	b90083a7 	str	w7, [x29, #128]
    3ebc:	b9008baa 	str	w10, [x29, #136]
    3ec0:	94001766 	bl	9c58 <__sprint_r>
    3ec4:	35ffec20 	cbnz	w0, 3c48 <_vfprintf_r+0xda0>
    3ec8:	39453fa1 	ldrb	w1, [x29, #335]
    3ecc:	9107c3a6 	add	x6, x29, #0x1f0
    3ed0:	b94083a7 	ldr	w7, [x29, #128]
    3ed4:	b9408baa 	ldr	w10, [x29, #136]
    3ed8:	f940c3a0 	ldr	x0, [x29, #384]
    3edc:	17fffca7 	b	3178 <_vfprintf_r+0x2d0>
    3ee0:	11000421 	add	w1, w1, #0x1
    3ee4:	93407f18 	sxtw	x24, w24
    3ee8:	71001c3f 	cmp	w1, #0x7
    3eec:	b9017ba1 	str	w1, [x29, #376]
    3ef0:	d0000041 	adrp	x1, d000 <__trunctfdf2+0x290>
    3ef4:	910c0021 	add	x1, x1, #0x300
    3ef8:	8b180000 	add	x0, x0, x24
    3efc:	f90004d8 	str	x24, [x6, #8]
    3f00:	91004021 	add	x1, x1, #0x10
    3f04:	f900c3a0 	str	x0, [x29, #384]
    3f08:	f90000c1 	str	x1, [x6]
    3f0c:	910040c6 	add	x6, x6, #0x10
    3f10:	5400010d 	b.le	3f30 <_vfprintf_r+0x1088>
    3f14:	f9408fa1 	ldr	x1, [x29, #280]
    3f18:	9105c3a2 	add	x2, x29, #0x170
    3f1c:	aa1703e0 	mov	x0, x23
    3f20:	9400174e 	bl	9c58 <__sprint_r>
    3f24:	35ffe920 	cbnz	w0, 3c48 <_vfprintf_r+0xda0>
    3f28:	f940c3a0 	ldr	x0, [x29, #384]
    3f2c:	9107c3a6 	add	x6, x29, #0x1f0
    3f30:	b940fba1 	ldr	w1, [x29, #248]
    3f34:	8b21c35c 	add	x28, x26, w1, sxtw
    3f38:	37501bf6 	tbnz	w22, #10, 42b4 <_vfprintf_r+0x140c>
    3f3c:	b940f3a1 	ldr	w1, [x29, #240]
    3f40:	b9415bb8 	ldr	w24, [x29, #344]
    3f44:	6b01031f 	cmp	w24, w1
    3f48:	5400068b 	b.lt	4018 <_vfprintf_r+0x1170>  // b.tstop
    3f4c:	37000676 	tbnz	w22, #0, 4018 <_vfprintf_r+0x1170>
    3f50:	b940f3a1 	ldr	w1, [x29, #240]
    3f54:	4b180038 	sub	w24, w1, w24
    3f58:	8b21c359 	add	x25, x26, w1, sxtw
    3f5c:	cb1c0339 	sub	x25, x25, x28
    3f60:	6b19031f 	cmp	w24, w25
    3f64:	1a99d319 	csel	w25, w24, w25, le
    3f68:	7100033f 	cmp	w25, #0x0
    3f6c:	5400018d 	b.le	3f9c <_vfprintf_r+0x10f4>
    3f70:	b9417ba1 	ldr	w1, [x29, #376]
    3f74:	910040c6 	add	x6, x6, #0x10
    3f78:	f81f00dc 	stur	x28, [x6, #-16]
    3f7c:	11000421 	add	w1, w1, #0x1
    3f80:	b9017ba1 	str	w1, [x29, #376]
    3f84:	71001c3f 	cmp	w1, #0x7
    3f88:	93407f21 	sxtw	x1, w25
    3f8c:	8b010000 	add	x0, x0, x1
    3f90:	f81f80c1 	stur	x1, [x6, #-8]
    3f94:	f900c3a0 	str	x0, [x29, #384]
    3f98:	54003d0c 	b.gt	4738 <_vfprintf_r+0x1890>
    3f9c:	7100033f 	cmp	w25, #0x0
    3fa0:	1a9fa339 	csel	w25, w25, wzr, ge  // ge = tcont
    3fa4:	4b190318 	sub	w24, w24, w25
    3fa8:	7100031f 	cmp	w24, #0x0
    3fac:	54ff9b4d 	b.le	3314 <_vfprintf_r+0x46c>
    3fb0:	7100431f 	cmp	w24, #0x10
    3fb4:	b9417ba1 	ldr	w1, [x29, #376]
    3fb8:	5400058d 	b.le	4068 <_vfprintf_r+0x11c0>
    3fbc:	d2800219 	mov	x25, #0x10                  	// #16
    3fc0:	f9408fba 	ldr	x26, [x29, #280]
    3fc4:	14000005 	b	3fd8 <_vfprintf_r+0x1130>
    3fc8:	910040c6 	add	x6, x6, #0x10
    3fcc:	51004318 	sub	w24, w24, #0x10
    3fd0:	7100431f 	cmp	w24, #0x10
    3fd4:	540004ad 	b.le	4068 <_vfprintf_r+0x11c0>
    3fd8:	11000421 	add	w1, w1, #0x1
    3fdc:	91004000 	add	x0, x0, #0x10
    3fe0:	a90064db 	stp	x27, x25, [x6]
    3fe4:	71001c3f 	cmp	w1, #0x7
    3fe8:	b9017ba1 	str	w1, [x29, #376]
    3fec:	f900c3a0 	str	x0, [x29, #384]
    3ff0:	54fffecd 	b.le	3fc8 <_vfprintf_r+0x1120>
    3ff4:	9105c3a2 	add	x2, x29, #0x170
    3ff8:	aa1a03e1 	mov	x1, x26
    3ffc:	aa1703e0 	mov	x0, x23
    4000:	94001716 	bl	9c58 <__sprint_r>
    4004:	35001440 	cbnz	w0, 428c <_vfprintf_r+0x13e4>
    4008:	9107c3a6 	add	x6, x29, #0x1f0
    400c:	b9417ba1 	ldr	w1, [x29, #376]
    4010:	f940c3a0 	ldr	x0, [x29, #384]
    4014:	17ffffee 	b	3fcc <_vfprintf_r+0x1124>
    4018:	f9406fa1 	ldr	x1, [x29, #216]
    401c:	f94067a2 	ldr	x2, [x29, #200]
    4020:	8b010000 	add	x0, x0, x1
    4024:	a90004c2 	stp	x2, x1, [x6]
    4028:	b9417ba1 	ldr	w1, [x29, #376]
    402c:	910040c6 	add	x6, x6, #0x10
    4030:	f900c3a0 	str	x0, [x29, #384]
    4034:	11000421 	add	w1, w1, #0x1
    4038:	b9017ba1 	str	w1, [x29, #376]
    403c:	71001c3f 	cmp	w1, #0x7
    4040:	54fff88d 	b.le	3f50 <_vfprintf_r+0x10a8>
    4044:	f9408fa1 	ldr	x1, [x29, #280]
    4048:	9105c3a2 	add	x2, x29, #0x170
    404c:	aa1703e0 	mov	x0, x23
    4050:	94001702 	bl	9c58 <__sprint_r>
    4054:	35ffdfa0 	cbnz	w0, 3c48 <_vfprintf_r+0xda0>
    4058:	9107c3a6 	add	x6, x29, #0x1f0
    405c:	b9415bb8 	ldr	w24, [x29, #344]
    4060:	f940c3a0 	ldr	x0, [x29, #384]
    4064:	17ffffbb 	b	3f50 <_vfprintf_r+0x10a8>
    4068:	11000421 	add	w1, w1, #0x1
    406c:	93407f18 	sxtw	x24, w24
    4070:	f90004d8 	str	x24, [x6, #8]
    4074:	8b180000 	add	x0, x0, x24
    4078:	b9017ba1 	str	w1, [x29, #376]
    407c:	71001c3f 	cmp	w1, #0x7
    4080:	f900c3a0 	str	x0, [x29, #384]
    4084:	b0000041 	adrp	x1, d000 <__trunctfdf2+0x290>
    4088:	910c0021 	add	x1, x1, #0x300
    408c:	91004021 	add	x1, x1, #0x10
    4090:	f90000c1 	str	x1, [x6]
    4094:	54ffd06c 	b.gt	3aa0 <_vfprintf_r+0xbf8>
    4098:	910040c6 	add	x6, x6, #0x10
    409c:	17fffc9e 	b	3314 <_vfprintf_r+0x46c>
    40a0:	f9408fa1 	ldr	x1, [x29, #280]
    40a4:	9105c3a2 	add	x2, x29, #0x170
    40a8:	aa1703e0 	mov	x0, x23
    40ac:	940016eb 	bl	9c58 <__sprint_r>
    40b0:	35ffdcc0 	cbnz	w0, 3c48 <_vfprintf_r+0xda0>
    40b4:	9107c3a2 	add	x2, x29, #0x1f0
    40b8:	b9417ba1 	ldr	w1, [x29, #376]
    40bc:	f940c3a0 	ldr	x0, [x29, #384]
    40c0:	17fffe53 	b	3a0c <_vfprintf_r+0xb64>
    40c4:	f9408fa1 	ldr	x1, [x29, #280]
    40c8:	9105c3a2 	add	x2, x29, #0x170
    40cc:	aa1703e0 	mov	x0, x23
    40d0:	940016e2 	bl	9c58 <__sprint_r>
    40d4:	35ffdba0 	cbnz	w0, 3c48 <_vfprintf_r+0xda0>
    40d8:	9107c3a2 	add	x2, x29, #0x1f0
    40dc:	b9417ba1 	ldr	w1, [x29, #376]
    40e0:	f940c3a0 	ldr	x0, [x29, #384]
    40e4:	17fffe54 	b	3a34 <_vfprintf_r+0xb8c>
    40e8:	f9408fa1 	ldr	x1, [x29, #280]
    40ec:	9105c3a2 	add	x2, x29, #0x170
    40f0:	aa1703e0 	mov	x0, x23
    40f4:	940016d9 	bl	9c58 <__sprint_r>
    40f8:	35ffda80 	cbnz	w0, 3c48 <_vfprintf_r+0xda0>
    40fc:	b9417ba4 	ldr	w4, [x29, #376]
    4100:	9107c3a1 	add	x1, x29, #0x1f0
    4104:	910803a6 	add	x6, x29, #0x200
    4108:	aa0103e2 	mov	x2, x1
    410c:	11000484 	add	w4, w4, #0x1
    4110:	f940c3a0 	ldr	x0, [x29, #384]
    4114:	17fffe5a 	b	3a7c <_vfprintf_r+0xbd4>
    4118:	39400268 	ldrb	w8, [x19]
    411c:	17fffbc9 	b	3040 <_vfprintf_r+0x198>
    4120:	3727bed6 	tbnz	w22, #4, 38f8 <_vfprintf_r+0xa50>
    4124:	37302b96 	tbnz	w22, #6, 4694 <_vfprintf_r+0x17ec>
    4128:	36489fb6 	tbz	w22, #9, 551c <_vfprintf_r+0x2674>
    412c:	37f89ec0 	tbnz	w0, #31, 5504 <_vfprintf_r+0x265c>
    4130:	f94083a0 	ldr	x0, [x29, #256]
    4134:	91003c01 	add	x1, x0, #0xf
    4138:	927df021 	and	x1, x1, #0xfffffffffffffff8
    413c:	f90083a1 	str	x1, [x29, #256]
    4140:	f9400000 	ldr	x0, [x0]
    4144:	aa1303fa 	mov	x26, x19
    4148:	394453a1 	ldrb	w1, [x29, #276]
    414c:	39000001 	strb	w1, [x0]
    4150:	17fffb97 	b	2fac <_vfprintf_r+0x104>
    4154:	b9417ba1 	ldr	w1, [x29, #376]
    4158:	91000400 	add	x0, x0, #0x1
    415c:	f900c3a0 	str	x0, [x29, #384]
    4160:	910040c6 	add	x6, x6, #0x10
    4164:	11000421 	add	w1, w1, #0x1
    4168:	b9017ba1 	str	w1, [x29, #376]
    416c:	71001c3f 	cmp	w1, #0x7
    4170:	b0000041 	adrp	x1, d000 <__trunctfdf2+0x290>
    4174:	91160021 	add	x1, x1, #0x580
    4178:	f81f00c1 	stur	x1, [x6, #-16]
    417c:	d2800021 	mov	x1, #0x1                   	// #1
    4180:	f81f80c1 	stur	x1, [x6, #-8]
    4184:	5400400c 	b.gt	4984 <_vfprintf_r+0x1adc>
    4188:	b940f3a1 	ldr	w1, [x29, #240]
    418c:	2a020021 	orr	w1, w1, w2
    4190:	34004281 	cbz	w1, 49e0 <_vfprintf_r+0x1b38>
    4194:	f9406fa1 	ldr	x1, [x29, #216]
    4198:	f94067a3 	ldr	x3, [x29, #200]
    419c:	8b000020 	add	x0, x1, x0
    41a0:	a90004c3 	stp	x3, x1, [x6]
    41a4:	b9417ba1 	ldr	w1, [x29, #376]
    41a8:	910040c6 	add	x6, x6, #0x10
    41ac:	f900c3a0 	str	x0, [x29, #384]
    41b0:	11000421 	add	w1, w1, #0x1
    41b4:	b9017ba1 	str	w1, [x29, #376]
    41b8:	71001c3f 	cmp	w1, #0x7
    41bc:	5400258c 	b.gt	466c <_vfprintf_r+0x17c4>
    41c0:	37f843c2 	tbnz	w2, #31, 4a38 <_vfprintf_r+0x1b90>
    41c4:	11000421 	add	w1, w1, #0x1
    41c8:	b9017ba1 	str	w1, [x29, #376]
    41cc:	71001c3f 	cmp	w1, #0x7
    41d0:	b980f3a1 	ldrsw	x1, [x29, #240]
    41d4:	f90000da 	str	x26, [x6]
    41d8:	8b000020 	add	x0, x1, x0
    41dc:	f90004c1 	str	x1, [x6, #8]
    41e0:	f900c3a0 	str	x0, [x29, #384]
    41e4:	54ffc5ec 	b.gt	3aa0 <_vfprintf_r+0xbf8>
    41e8:	910040c6 	add	x6, x6, #0x10
    41ec:	17fffc4a 	b	3314 <_vfprintf_r+0x46c>
    41f0:	f9408fa1 	ldr	x1, [x29, #280]
    41f4:	9105c3a2 	add	x2, x29, #0x170
    41f8:	aa1703e0 	mov	x0, x23
    41fc:	94001697 	bl	9c58 <__sprint_r>
    4200:	35ffd240 	cbnz	w0, 3c48 <_vfprintf_r+0xda0>
    4204:	9107c3a6 	add	x6, x29, #0x1f0
    4208:	17fffe3f 	b	3b04 <_vfprintf_r+0xc5c>
    420c:	11000424 	add	w4, w1, #0x1
    4210:	91004043 	add	x3, x2, #0x10
    4214:	93407f18 	sxtw	x24, w24
    4218:	b0000041 	adrp	x1, d000 <__trunctfdf2+0x290>
    421c:	910c0021 	add	x1, x1, #0x300
    4220:	8b180000 	add	x0, x0, x24
    4224:	91004021 	add	x1, x1, #0x10
    4228:	b9017ba4 	str	w4, [x29, #376]
    422c:	a9006041 	stp	x1, x24, [x2]
    4230:	71001c9f 	cmp	w4, #0x7
    4234:	f900c3a0 	str	x0, [x29, #384]
    4238:	54fff58c 	b.gt	40e8 <_vfprintf_r+0x1240>
    423c:	11000484 	add	w4, w4, #0x1
    4240:	91004066 	add	x6, x3, #0x10
    4244:	aa0303e2 	mov	x2, x3
    4248:	17fffe0d 	b	3a7c <_vfprintf_r+0xbd4>
    424c:	39400668 	ldrb	w8, [x19, #1]
    4250:	321702d6 	orr	w22, w22, #0x200
    4254:	91000673 	add	x19, x19, #0x1
    4258:	17fffb7a 	b	3040 <_vfprintf_r+0x198>
    425c:	39400668 	ldrb	w8, [x19, #1]
    4260:	321b02d6 	orr	w22, w22, #0x20
    4264:	91000673 	add	x19, x19, #0x1
    4268:	17fffb76 	b	3040 <_vfprintf_r+0x198>
    426c:	f9408fa1 	ldr	x1, [x29, #280]
    4270:	9105c3a2 	add	x2, x29, #0x170
    4274:	aa1703e0 	mov	x0, x23
    4278:	94001678 	bl	9c58 <__sprint_r>
    427c:	35ffce60 	cbnz	w0, 3c48 <_vfprintf_r+0xda0>
    4280:	9107c3a6 	add	x6, x29, #0x1f0
    4284:	f940c3a0 	ldr	x0, [x29, #384]
    4288:	17fffee2 	b	3e10 <_vfprintf_r+0xf68>
    428c:	aa1a03f6 	mov	x22, x26
    4290:	17fffe6f 	b	3c4c <_vfprintf_r+0xda4>
    4294:	36482459 	tbz	w25, #9, 471c <_vfprintf_r+0x1874>
    4298:	37f89c60 	tbnz	w0, #31, 5624 <_vfprintf_r+0x277c>
    429c:	f94083a0 	ldr	x0, [x29, #256]
    42a0:	91002c01 	add	x1, x0, #0xb
    42a4:	927df021 	and	x1, x1, #0xfffffffffffffff8
    42a8:	39800014 	ldrsb	x20, [x0]
    42ac:	f90083a1 	str	x1, [x29, #256]
    42b0:	17fffccf 	b	35ec <_vfprintf_r+0x744>
    42b4:	b940eba1 	ldr	w1, [x29, #232]
    42b8:	7100003f 	cmp	w1, #0x0
    42bc:	b940e3a1 	ldr	w1, [x29, #224]
    42c0:	7a40d820 	ccmp	w1, #0x0, #0x0, le
    42c4:	540025ad 	b.le	4778 <_vfprintf_r+0x18d0>
    42c8:	290f57b4 	stp	w20, w21, [x29, #120]
    42cc:	b90083b6 	str	w22, [x29, #128]
    42d0:	a949d3b5 	ldp	x21, x20, [x29, #152]
    42d4:	f90047b3 	str	x19, [x29, #136]
    42d8:	f9408fb6 	ldr	x22, [x29, #280]
    42dc:	2a0103f3 	mov	w19, w1
    42e0:	b980f3a2 	ldrsw	x2, [x29, #240]
    42e4:	f90073a2 	str	x2, [x29, #224]
    42e8:	f9007fba 	str	x26, [x29, #248]
    42ec:	d503201f 	nop
    42f0:	34002893 	cbz	w19, 4800 <_vfprintf_r+0x1958>
    42f4:	51000673 	sub	w19, w19, #0x1
    42f8:	f9405ba1 	ldr	x1, [x29, #176]
    42fc:	8b150000 	add	x0, x0, x21
    4300:	a90054c1 	stp	x1, x21, [x6]
    4304:	910040c6 	add	x6, x6, #0x10
    4308:	b9417ba1 	ldr	w1, [x29, #376]
    430c:	f900c3a0 	str	x0, [x29, #384]
    4310:	11000421 	add	w1, w1, #0x1
    4314:	b9017ba1 	str	w1, [x29, #376]
    4318:	71001c3f 	cmp	w1, #0x7
    431c:	540027cc 	b.gt	4814 <_vfprintf_r+0x196c>
    4320:	f94073a3 	ldr	x3, [x29, #224]
    4324:	f9407fa2 	ldr	x2, [x29, #248]
    4328:	39400281 	ldrb	w1, [x20]
    432c:	8b030058 	add	x24, x2, x3
    4330:	cb1c0303 	sub	x3, x24, x28
    4334:	6b03003f 	cmp	w1, w3
    4338:	1a83d039 	csel	w25, w1, w3, le
    433c:	7100033f 	cmp	w25, #0x0
    4340:	540001ad 	b.le	4374 <_vfprintf_r+0x14cc>
    4344:	b9417ba1 	ldr	w1, [x29, #376]
    4348:	f90000dc 	str	x28, [x6]
    434c:	11000421 	add	w1, w1, #0x1
    4350:	b9017ba1 	str	w1, [x29, #376]
    4354:	71001c3f 	cmp	w1, #0x7
    4358:	93407f21 	sxtw	x1, w25
    435c:	8b010000 	add	x0, x0, x1
    4360:	f90004c1 	str	x1, [x6, #8]
    4364:	f900c3a0 	str	x0, [x29, #384]
    4368:	54002a2c 	b.gt	48ac <_vfprintf_r+0x1a04>
    436c:	39400281 	ldrb	w1, [x20]
    4370:	910040c6 	add	x6, x6, #0x10
    4374:	7100033f 	cmp	w25, #0x0
    4378:	1a9fa323 	csel	w3, w25, wzr, ge  // ge = tcont
    437c:	4b03003a 	sub	w26, w1, w3
    4380:	7100035f 	cmp	w26, #0x0
    4384:	5400054d 	b.le	442c <_vfprintf_r+0x1584>
    4388:	7100435f 	cmp	w26, #0x10
    438c:	b9417ba1 	ldr	w1, [x29, #376]
    4390:	5400032d 	b.le	43f4 <_vfprintf_r+0x154c>
    4394:	d2800219 	mov	x25, #0x10                  	// #16
    4398:	14000005 	b	43ac <_vfprintf_r+0x1504>
    439c:	5100435a 	sub	w26, w26, #0x10
    43a0:	910040c6 	add	x6, x6, #0x10
    43a4:	7100435f 	cmp	w26, #0x10
    43a8:	5400026d 	b.le	43f4 <_vfprintf_r+0x154c>
    43ac:	11000421 	add	w1, w1, #0x1
    43b0:	91004000 	add	x0, x0, #0x10
    43b4:	a90064db 	stp	x27, x25, [x6]
    43b8:	71001c3f 	cmp	w1, #0x7
    43bc:	b9017ba1 	str	w1, [x29, #376]
    43c0:	f900c3a0 	str	x0, [x29, #384]
    43c4:	54fffecd 	b.le	439c <_vfprintf_r+0x14f4>
    43c8:	9105c3a2 	add	x2, x29, #0x170
    43cc:	aa1603e1 	mov	x1, x22
    43d0:	aa1703e0 	mov	x0, x23
    43d4:	94001621 	bl	9c58 <__sprint_r>
    43d8:	35ffc3a0 	cbnz	w0, 3c4c <_vfprintf_r+0xda4>
    43dc:	5100435a 	sub	w26, w26, #0x10
    43e0:	9107c3a6 	add	x6, x29, #0x1f0
    43e4:	b9417ba1 	ldr	w1, [x29, #376]
    43e8:	7100435f 	cmp	w26, #0x10
    43ec:	f940c3a0 	ldr	x0, [x29, #384]
    43f0:	54fffdec 	b.gt	43ac <_vfprintf_r+0x1504>
    43f4:	11000421 	add	w1, w1, #0x1
    43f8:	93407f43 	sxtw	x3, w26
    43fc:	71001c3f 	cmp	w1, #0x7
    4400:	b9017ba1 	str	w1, [x29, #376]
    4404:	b0000041 	adrp	x1, d000 <__trunctfdf2+0x290>
    4408:	910c0021 	add	x1, x1, #0x300
    440c:	8b030000 	add	x0, x0, x3
    4410:	91004021 	add	x1, x1, #0x10
    4414:	f900c3a0 	str	x0, [x29, #384]
    4418:	f90000c1 	str	x1, [x6]
    441c:	f90004c3 	str	x3, [x6, #8]
    4420:	5400290c 	b.gt	4940 <_vfprintf_r+0x1a98>
    4424:	39400281 	ldrb	w1, [x20]
    4428:	910040c6 	add	x6, x6, #0x10
    442c:	8b21039c 	add	x28, x28, w1, uxtb
    4430:	b940eba1 	ldr	w1, [x29, #232]
    4434:	7100003f 	cmp	w1, #0x0
    4438:	7a40da60 	ccmp	w19, #0x0, #0x0, le
    443c:	54fff5ac 	b.gt	42f0 <_vfprintf_r+0x1448>
    4440:	f90053b4 	str	x20, [x29, #160]
    4444:	aa1803e1 	mov	x1, x24
    4448:	294fdbb5 	ldp	w21, w22, [x29, #124]
    444c:	f94047b3 	ldr	x19, [x29, #136]
    4450:	f9407fba 	ldr	x26, [x29, #248]
    4454:	b9407bb4 	ldr	w20, [x29, #120]
    4458:	140000ca 	b	4780 <_vfprintf_r+0x18d8>
    445c:	36481519 	tbz	w25, #9, 46fc <_vfprintf_r+0x1854>
    4460:	37f89320 	tbnz	w0, #31, 56c4 <_vfprintf_r+0x281c>
    4464:	f94083a0 	ldr	x0, [x29, #256]
    4468:	91002c01 	add	x1, x0, #0xb
    446c:	927df021 	and	x1, x1, #0xfffffffffffffff8
    4470:	f90083a1 	str	x1, [x29, #256]
    4474:	39400014 	ldrb	w20, [x0]
    4478:	52800020 	mov	w0, #0x1                   	// #1
    447c:	14000063 	b	4608 <_vfprintf_r+0x1760>
    4480:	36481316 	tbz	w22, #9, 46e0 <_vfprintf_r+0x1838>
    4484:	37f872e0 	tbnz	w0, #31, 52e0 <_vfprintf_r+0x2438>
    4488:	f94083a0 	ldr	x0, [x29, #256]
    448c:	91002c01 	add	x1, x0, #0xb
    4490:	927df021 	and	x1, x1, #0xfffffffffffffff8
    4494:	f90083a1 	str	x1, [x29, #256]
    4498:	39400014 	ldrb	w20, [x0]
    449c:	f100029f 	cmp	x20, #0x0
    44a0:	120002c0 	and	w0, w22, #0x1
    44a4:	1a9f1000 	csel	w0, w0, wzr, ne  // ne = any
    44a8:	35002920 	cbnz	w0, 49cc <_vfprintf_r+0x1b24>
    44ac:	12157ad9 	and	w25, w22, #0xfffffbff
    44b0:	52800040 	mov	w0, #0x2                   	// #2
    44b4:	14000055 	b	4608 <_vfprintf_r+0x1760>
    44b8:	36481036 	tbz	w22, #9, 46bc <_vfprintf_r+0x1814>
    44bc:	37f871e0 	tbnz	w0, #31, 52f8 <_vfprintf_r+0x2450>
    44c0:	f94083a0 	ldr	x0, [x29, #256]
    44c4:	91002c01 	add	x1, x0, #0xb
    44c8:	927df021 	and	x1, x1, #0xfffffffffffffff8
    44cc:	39400014 	ldrb	w20, [x0]
    44d0:	f90083a1 	str	x1, [x29, #256]
    44d4:	14000080 	b	46d4 <_vfprintf_r+0x182c>
    44d8:	b94113a0 	ldr	w0, [x29, #272]
    44dc:	aa1903e6 	mov	x6, x25
    44e0:	37f88480 	tbnz	w0, #31, 5570 <_vfprintf_r+0x26c8>
    44e4:	f94083a0 	ldr	x0, [x29, #256]
    44e8:	91002c01 	add	x1, x0, #0xb
    44ec:	927df021 	and	x1, x1, #0xfffffffffffffff8
    44f0:	f90083a1 	str	x1, [x29, #256]
    44f4:	b9400000 	ldr	w0, [x0]
    44f8:	39053fbf 	strb	wzr, [x29, #335]
    44fc:	390623a0 	strb	w0, [x29, #392]
    4500:	17fffad9 	b	3064 <_vfprintf_r+0x1bc>
    4504:	b94113a0 	ldr	w0, [x29, #272]
    4508:	37f88be0 	tbnz	w0, #31, 5684 <_vfprintf_r+0x27dc>
    450c:	f94083a0 	ldr	x0, [x29, #256]
    4510:	91002c01 	add	x1, x0, #0xb
    4514:	927df021 	and	x1, x1, #0xfffffffffffffff8
    4518:	f90083a1 	str	x1, [x29, #256]
    451c:	b9400015 	ldr	w21, [x0]
    4520:	39400268 	ldrb	w8, [x19]
    4524:	36ff58f5 	tbz	w21, #31, 3040 <_vfprintf_r+0x198>
    4528:	4b1503f5 	neg	w21, w21
    452c:	321e02d6 	orr	w22, w22, #0x4
    4530:	17fffac4 	b	3040 <_vfprintf_r+0x198>
    4534:	b94113a0 	ldr	w0, [x29, #272]
    4538:	2a1403e7 	mov	w7, w20
    453c:	aa1903e6 	mov	x6, x25
    4540:	37f877e0 	tbnz	w0, #31, 543c <_vfprintf_r+0x2594>
    4544:	f94083a0 	ldr	x0, [x29, #256]
    4548:	91003c01 	add	x1, x0, #0xf
    454c:	927df021 	and	x1, x1, #0xfffffffffffffff8
    4550:	f90083a1 	str	x1, [x29, #256]
    4554:	f940001a 	ldr	x26, [x0]
    4558:	39053fbf 	strb	wzr, [x29, #335]
    455c:	b4001bba 	cbz	x26, 48d0 <_vfprintf_r+0x1a28>
    4560:	310004ff 	cmn	w7, #0x1
    4564:	54001d00 	b.eq	4904 <_vfprintf_r+0x1a5c>  // b.none
    4568:	93407ce2 	sxtw	x2, w7
    456c:	f90077a6 	str	x6, [x29, #232]
    4570:	b900fba7 	str	w7, [x29, #248]
    4574:	52800001 	mov	w1, #0x0                   	// #0
    4578:	aa1a03e0 	mov	x0, x26
    457c:	94001015 	bl	85d0 <memchr>
    4580:	f90087a0 	str	x0, [x29, #264]
    4584:	b940fba7 	ldr	w7, [x29, #248]
    4588:	f94077a6 	ldr	x6, [x29, #232]
    458c:	b40020e0 	cbz	x0, 49a8 <_vfprintf_r+0x1b00>
    4590:	f94087a0 	ldr	x0, [x29, #264]
    4594:	52800007 	mov	w7, #0x0                   	// #0
    4598:	39453fa1 	ldrb	w1, [x29, #335]
    459c:	cb1a0014 	sub	x20, x0, x26
    45a0:	b900e3bf 	str	wzr, [x29, #224]
    45a4:	b900ebbf 	str	wzr, [x29, #232]
    45a8:	7100029f 	cmp	w20, #0x0
    45ac:	b900fbbf 	str	wzr, [x29, #248]
    45b0:	2a1403f8 	mov	w24, w20
    45b4:	f90087bf 	str	xzr, [x29, #264]
    45b8:	1a9fa294 	csel	w20, w20, wzr, ge  // ge = tcont
    45bc:	34ff5661 	cbz	w1, 3088 <_vfprintf_r+0x1e0>
    45c0:	17fffbf9 	b	35a4 <_vfprintf_r+0x6fc>
    45c4:	b94113a0 	ldr	w0, [x29, #272]
    45c8:	2a1403e7 	mov	w7, w20
    45cc:	aa1903e6 	mov	x6, x25
    45d0:	37f884e0 	tbnz	w0, #31, 566c <_vfprintf_r+0x27c4>
    45d4:	f94083a0 	ldr	x0, [x29, #256]
    45d8:	91003c01 	add	x1, x0, #0xf
    45dc:	927df021 	and	x1, x1, #0xfffffffffffffff8
    45e0:	f90083a1 	str	x1, [x29, #256]
    45e4:	f9400014 	ldr	x20, [x0]
    45e8:	528f0600 	mov	w0, #0x7830                	// #30768
    45ec:	321f02d9 	orr	w25, w22, #0x2
    45f0:	7902a3a0 	strh	w0, [x29, #336]
    45f4:	b0000040 	adrp	x0, d000 <__trunctfdf2+0x290>
    45f8:	91152000 	add	x0, x0, #0x548
    45fc:	52800f1c 	mov	w28, #0x78                  	// #120
    4600:	f90063a0 	str	x0, [x29, #192]
    4604:	52800040 	mov	w0, #0x2                   	// #2
    4608:	39053fbf 	strb	wzr, [x29, #335]
    460c:	910623a3 	add	x3, x29, #0x188
    4610:	310004ff 	cmn	w7, #0x1
    4614:	91019078 	add	x24, x3, #0x64
    4618:	54ff79c0 	b.eq	3550 <_vfprintf_r+0x6a8>  // b.none
    461c:	f100029f 	cmp	x20, #0x0
    4620:	12187b36 	and	w22, w25, #0xffffff7f
    4624:	7a4008e0 	ccmp	w7, #0x0, #0x0, eq  // eq = none
    4628:	54000e21 	b.ne	47ec <_vfprintf_r+0x1944>  // b.any
    462c:	35000b00 	cbnz	w0, 478c <_vfprintf_r+0x18e4>
    4630:	12000338 	and	w24, w25, #0x1
    4634:	36000e19 	tbz	w25, #0, 47f4 <_vfprintf_r+0x194c>
    4638:	91018c7a 	add	x26, x3, #0x63
    463c:	52800600 	mov	w0, #0x30                  	// #48
    4640:	52800007 	mov	w7, #0x0                   	// #0
    4644:	3907afa0 	strb	w0, [x29, #491]
    4648:	39453fa1 	ldrb	w1, [x29, #335]
    464c:	6b07031f 	cmp	w24, w7
    4650:	b900e3bf 	str	wzr, [x29, #224]
    4654:	1a87a314 	csel	w20, w24, w7, ge  // ge = tcont
    4658:	b900ebbf 	str	wzr, [x29, #232]
    465c:	b900fbbf 	str	wzr, [x29, #248]
    4660:	f90087bf 	str	xzr, [x29, #264]
    4664:	34ff5121 	cbz	w1, 3088 <_vfprintf_r+0x1e0>
    4668:	17fffbcf 	b	35a4 <_vfprintf_r+0x6fc>
    466c:	f9408fa1 	ldr	x1, [x29, #280]
    4670:	9105c3a2 	add	x2, x29, #0x170
    4674:	aa1703e0 	mov	x0, x23
    4678:	94001578 	bl	9c58 <__sprint_r>
    467c:	35ffae60 	cbnz	w0, 3c48 <_vfprintf_r+0xda0>
    4680:	9107c3a6 	add	x6, x29, #0x1f0
    4684:	b9415ba2 	ldr	w2, [x29, #344]
    4688:	b9417ba1 	ldr	w1, [x29, #376]
    468c:	f940c3a0 	ldr	x0, [x29, #384]
    4690:	17fffecc 	b	41c0 <_vfprintf_r+0x1318>
    4694:	37f87900 	tbnz	w0, #31, 55b4 <_vfprintf_r+0x270c>
    4698:	f94083a0 	ldr	x0, [x29, #256]
    469c:	91003c01 	add	x1, x0, #0xf
    46a0:	927df021 	and	x1, x1, #0xfffffffffffffff8
    46a4:	f90083a1 	str	x1, [x29, #256]
    46a8:	f9400000 	ldr	x0, [x0]
    46ac:	aa1303fa 	mov	x26, x19
    46b0:	79422ba1 	ldrh	w1, [x29, #276]
    46b4:	79000001 	strh	w1, [x0]
    46b8:	17fffa3d 	b	2fac <_vfprintf_r+0x104>
    46bc:	37f86cc0 	tbnz	w0, #31, 5454 <_vfprintf_r+0x25ac>
    46c0:	f94083a0 	ldr	x0, [x29, #256]
    46c4:	91002c01 	add	x1, x0, #0xb
    46c8:	927df021 	and	x1, x1, #0xfffffffffffffff8
    46cc:	f90083a1 	str	x1, [x29, #256]
    46d0:	b9400014 	ldr	w20, [x0]
    46d4:	12157ad9 	and	w25, w22, #0xfffffbff
    46d8:	52800000 	mov	w0, #0x0                   	// #0
    46dc:	17ffffcb 	b	4608 <_vfprintf_r+0x1760>
    46e0:	37f86e40 	tbnz	w0, #31, 54a8 <_vfprintf_r+0x2600>
    46e4:	f94083a0 	ldr	x0, [x29, #256]
    46e8:	91002c01 	add	x1, x0, #0xb
    46ec:	927df021 	and	x1, x1, #0xfffffffffffffff8
    46f0:	b9400014 	ldr	w20, [x0]
    46f4:	f90083a1 	str	x1, [x29, #256]
    46f8:	17ffff69 	b	449c <_vfprintf_r+0x15f4>
    46fc:	37f87680 	tbnz	w0, #31, 55cc <_vfprintf_r+0x2724>
    4700:	f94083a0 	ldr	x0, [x29, #256]
    4704:	91002c01 	add	x1, x0, #0xb
    4708:	927df021 	and	x1, x1, #0xfffffffffffffff8
    470c:	f90083a1 	str	x1, [x29, #256]
    4710:	b9400014 	ldr	w20, [x0]
    4714:	52800020 	mov	w0, #0x1                   	// #1
    4718:	17ffffbc 	b	4608 <_vfprintf_r+0x1760>
    471c:	37f87780 	tbnz	w0, #31, 560c <_vfprintf_r+0x2764>
    4720:	f94083a0 	ldr	x0, [x29, #256]
    4724:	91002c01 	add	x1, x0, #0xb
    4728:	927df021 	and	x1, x1, #0xfffffffffffffff8
    472c:	b9800014 	ldrsw	x20, [x0]
    4730:	f90083a1 	str	x1, [x29, #256]
    4734:	17fffbae 	b	35ec <_vfprintf_r+0x744>
    4738:	f9408fa1 	ldr	x1, [x29, #280]
    473c:	9105c3a2 	add	x2, x29, #0x170
    4740:	aa1703e0 	mov	x0, x23
    4744:	94001545 	bl	9c58 <__sprint_r>
    4748:	35ffa800 	cbnz	w0, 3c48 <_vfprintf_r+0xda0>
    474c:	b940f3a0 	ldr	w0, [x29, #240]
    4750:	9107c3a6 	add	x6, x29, #0x1f0
    4754:	b9415bb8 	ldr	w24, [x29, #344]
    4758:	4b180018 	sub	w24, w0, w24
    475c:	f940c3a0 	ldr	x0, [x29, #384]
    4760:	17fffe0f 	b	3f9c <_vfprintf_r+0x10f4>
    4764:	9105c3a2 	add	x2, x29, #0x170
    4768:	aa1603e1 	mov	x1, x22
    476c:	aa1703e0 	mov	x0, x23
    4770:	9400153a 	bl	9c58 <__sprint_r>
    4774:	17fffc83 	b	3980 <_vfprintf_r+0xad8>
    4778:	b940f3a1 	ldr	w1, [x29, #240]
    477c:	8b21c341 	add	x1, x26, w1, sxtw
    4780:	eb01039f 	cmp	x28, x1
    4784:	9a81939c 	csel	x28, x28, x1, ls  // ls = plast
    4788:	17fffded 	b	3f3c <_vfprintf_r+0x1094>
    478c:	9101907a 	add	x26, x3, #0x64
    4790:	52800007 	mov	w7, #0x0                   	// #0
    4794:	52800018 	mov	w24, #0x0                   	// #0
    4798:	17ffffac 	b	4648 <_vfprintf_r+0x17a0>
    479c:	91019060 	add	x0, x3, #0x64
    47a0:	14000002 	b	47a8 <_vfprintf_r+0x1900>
    47a4:	aa1a03e0 	mov	x0, x26
    47a8:	12000a81 	and	w1, w20, #0x7
    47ac:	d100041a 	sub	x26, x0, #0x1
    47b0:	1100c021 	add	w1, w1, #0x30
    47b4:	381ff001 	sturb	w1, [x0, #-1]
    47b8:	d343fe94 	lsr	x20, x20, #3
    47bc:	b5ffff54 	cbnz	x20, 47a4 <_vfprintf_r+0x18fc>
    47c0:	7100c03f 	cmp	w1, #0x30
    47c4:	12000321 	and	w1, w25, #0x1
    47c8:	1a9f1021 	csel	w1, w1, wzr, ne  // ne = any
    47cc:	34ff6d81 	cbz	w1, 357c <_vfprintf_r+0x6d4>
    47d0:	d1000800 	sub	x0, x0, #0x2
    47d4:	52800601 	mov	w1, #0x30                  	// #48
    47d8:	2a1903f6 	mov	w22, w25
    47dc:	381ff341 	sturb	w1, [x26, #-1]
    47e0:	4b000318 	sub	w24, w24, w0
    47e4:	aa0003fa 	mov	x26, x0
    47e8:	17ffff98 	b	4648 <_vfprintf_r+0x17a0>
    47ec:	2a1603f9 	mov	w25, w22
    47f0:	17fffb58 	b	3550 <_vfprintf_r+0x6a8>
    47f4:	9101907a 	add	x26, x3, #0x64
    47f8:	52800007 	mov	w7, #0x0                   	// #0
    47fc:	17ffff93 	b	4648 <_vfprintf_r+0x17a0>
    4800:	b940eba1 	ldr	w1, [x29, #232]
    4804:	d1000694 	sub	x20, x20, #0x1
    4808:	51000421 	sub	w1, w1, #0x1
    480c:	b900eba1 	str	w1, [x29, #232]
    4810:	17fffeba 	b	42f8 <_vfprintf_r+0x1450>
    4814:	9105c3a2 	add	x2, x29, #0x170
    4818:	aa1603e1 	mov	x1, x22
    481c:	aa1703e0 	mov	x0, x23
    4820:	9400150e 	bl	9c58 <__sprint_r>
    4824:	35ffa140 	cbnz	w0, 3c4c <_vfprintf_r+0xda4>
    4828:	9107c3a6 	add	x6, x29, #0x1f0
    482c:	f940c3a0 	ldr	x0, [x29, #384]
    4830:	17fffebc 	b	4320 <_vfprintf_r+0x1478>
    4834:	12160324 	and	w4, w25, #0x400
    4838:	b202e7f6 	mov	x22, #0xcccccccccccccccc    	// #-3689348814741910324
    483c:	2a0403fa 	mov	w26, w4
    4840:	f94053a4 	ldr	x4, [x29, #160]
    4844:	91019063 	add	x3, x3, #0x64
    4848:	52800001 	mov	w1, #0x0                   	// #0
    484c:	f29999b6 	movk	x22, #0xcccd
    4850:	9bd67e80 	umulh	x0, x20, x22
    4854:	11000421 	add	w1, w1, #0x1
    4858:	d1000463 	sub	x3, x3, #0x1
    485c:	d343fc00 	lsr	x0, x0, #3
    4860:	8b000800 	add	x0, x0, x0, lsl #2
    4864:	cb000680 	sub	x0, x20, x0, lsl #1
    4868:	1100c000 	add	w0, w0, #0x30
    486c:	39000060 	strb	w0, [x3]
    4870:	340000da 	cbz	w26, 4888 <_vfprintf_r+0x19e0>
    4874:	39400080 	ldrb	w0, [x4]
    4878:	7103fc1f 	cmp	w0, #0xff
    487c:	fa491a80 	ccmp	x20, #0x9, #0x0, ne  // ne = any
    4880:	7a418000 	ccmp	w0, w1, #0x0, hi  // hi = pmore
    4884:	54000b60 	b.eq	49f0 <_vfprintf_r+0x1b48>  // b.none
    4888:	9bd67e94 	umulh	x20, x20, x22
    488c:	d343fe94 	lsr	x20, x20, #3
    4890:	b5fffe14 	cbnz	x20, 4850 <_vfprintf_r+0x19a8>
    4894:	aa0303fa 	mov	x26, x3
    4898:	4b030318 	sub	w24, w24, w3
    489c:	2a1903f6 	mov	w22, w25
    48a0:	f90053a4 	str	x4, [x29, #160]
    48a4:	b900f3a1 	str	w1, [x29, #240]
    48a8:	17ffff68 	b	4648 <_vfprintf_r+0x17a0>
    48ac:	9105c3a2 	add	x2, x29, #0x170
    48b0:	aa1603e1 	mov	x1, x22
    48b4:	aa1703e0 	mov	x0, x23
    48b8:	940014e8 	bl	9c58 <__sprint_r>
    48bc:	35ff9c80 	cbnz	w0, 3c4c <_vfprintf_r+0xda4>
    48c0:	39400281 	ldrb	w1, [x20]
    48c4:	9107c3a6 	add	x6, x29, #0x1f0
    48c8:	f940c3a0 	ldr	x0, [x29, #384]
    48cc:	17fffeaa 	b	4374 <_vfprintf_r+0x14cc>
    48d0:	710018ff 	cmp	w7, #0x6
    48d4:	528000d4 	mov	w20, #0x6                   	// #6
    48d8:	1a9490f4 	csel	w20, w7, w20, ls  // ls = plast
    48dc:	b0000043 	adrp	x3, d000 <__trunctfdf2+0x290>
    48e0:	2a1403f8 	mov	w24, w20
    48e4:	9115e07a 	add	x26, x3, #0x578
    48e8:	52800001 	mov	w1, #0x0                   	// #0
    48ec:	52800007 	mov	w7, #0x0                   	// #0
    48f0:	b900e3bf 	str	wzr, [x29, #224]
    48f4:	b900ebbf 	str	wzr, [x29, #232]
    48f8:	b900fbbf 	str	wzr, [x29, #248]
    48fc:	f90087bf 	str	xzr, [x29, #264]
    4900:	17fff9e2 	b	3088 <_vfprintf_r+0x1e0>
    4904:	f90047a6 	str	x6, [x29, #136]
    4908:	aa1a03e0 	mov	x0, x26
    490c:	9400141d 	bl	9980 <strlen>
    4910:	b900e3bf 	str	wzr, [x29, #224]
    4914:	39453fa1 	ldrb	w1, [x29, #335]
    4918:	7100001f 	cmp	w0, #0x0
    491c:	b900ebbf 	str	wzr, [x29, #232]
    4920:	2a0003f8 	mov	w24, w0
    4924:	b900fbbf 	str	wzr, [x29, #248]
    4928:	1a9fa014 	csel	w20, w0, wzr, ge  // ge = tcont
    492c:	f90087bf 	str	xzr, [x29, #264]
    4930:	52800007 	mov	w7, #0x0                   	// #0
    4934:	f94047a6 	ldr	x6, [x29, #136]
    4938:	34ff3a81 	cbz	w1, 3088 <_vfprintf_r+0x1e0>
    493c:	17fffb1a 	b	35a4 <_vfprintf_r+0x6fc>
    4940:	9105c3a2 	add	x2, x29, #0x170
    4944:	aa1603e1 	mov	x1, x22
    4948:	aa1703e0 	mov	x0, x23
    494c:	940014c3 	bl	9c58 <__sprint_r>
    4950:	35ff97e0 	cbnz	w0, 3c4c <_vfprintf_r+0xda4>
    4954:	39400281 	ldrb	w1, [x20]
    4958:	9107c3a6 	add	x6, x29, #0x1f0
    495c:	f940c3a0 	ldr	x0, [x29, #384]
    4960:	17fffeb3 	b	442c <_vfprintf_r+0x1584>
    4964:	f9408fa1 	ldr	x1, [x29, #280]
    4968:	9105c3a2 	add	x2, x29, #0x170
    496c:	aa1703e0 	mov	x0, x23
    4970:	940014ba 	bl	9c58 <__sprint_r>
    4974:	35ff96a0 	cbnz	w0, 3c48 <_vfprintf_r+0xda0>
    4978:	9107c3a6 	add	x6, x29, #0x1f0
    497c:	f940c3a0 	ldr	x0, [x29, #384]
    4980:	17fffcdc 	b	3cf0 <_vfprintf_r+0xe48>
    4984:	f9408fa1 	ldr	x1, [x29, #280]
    4988:	9105c3a2 	add	x2, x29, #0x170
    498c:	aa1703e0 	mov	x0, x23
    4990:	940014b2 	bl	9c58 <__sprint_r>
    4994:	35ff95a0 	cbnz	w0, 3c48 <_vfprintf_r+0xda0>
    4998:	9107c3a6 	add	x6, x29, #0x1f0
    499c:	b9415ba2 	ldr	w2, [x29, #344]
    49a0:	f940c3a0 	ldr	x0, [x29, #384]
    49a4:	17fffdf9 	b	4188 <_vfprintf_r+0x12e0>
    49a8:	39453fa1 	ldrb	w1, [x29, #335]
    49ac:	2a0703f4 	mov	w20, w7
    49b0:	b900e3bf 	str	wzr, [x29, #224]
    49b4:	2a0703f8 	mov	w24, w7
    49b8:	b900ebbf 	str	wzr, [x29, #232]
    49bc:	52800007 	mov	w7, #0x0                   	// #0
    49c0:	b900fbbf 	str	wzr, [x29, #248]
    49c4:	34ff3621 	cbz	w1, 3088 <_vfprintf_r+0x1e0>
    49c8:	17fffaf7 	b	35a4 <_vfprintf_r+0x6fc>
    49cc:	52800600 	mov	w0, #0x30                  	// #48
    49d0:	321f02d6 	orr	w22, w22, #0x2
    49d4:	390543a0 	strb	w0, [x29, #336]
    49d8:	390547bc 	strb	w28, [x29, #337]
    49dc:	17fffeb4 	b	44ac <_vfprintf_r+0x1604>
    49e0:	360749b6 	tbz	w22, #0, 3314 <_vfprintf_r+0x46c>
    49e4:	17fffdec 	b	4194 <_vfprintf_r+0x12ec>
    49e8:	aa1c03f6 	mov	x22, x28
    49ec:	17fffc98 	b	3c4c <_vfprintf_r+0xda4>
    49f0:	f9404fa0 	ldr	x0, [x29, #152]
    49f4:	f9405ba1 	ldr	x1, [x29, #176]
    49f8:	cb000063 	sub	x3, x3, x0
    49fc:	aa0003e2 	mov	x2, x0
    4a00:	a90e93a6 	stp	x6, x4, [x29, #232]
    4a04:	aa0303e0 	mov	x0, x3
    4a08:	b900fba7 	str	w7, [x29, #248]
    4a0c:	f90087a3 	str	x3, [x29, #264]
    4a10:	9400142c 	bl	9ac0 <strncpy>
    4a14:	a94e93a6 	ldp	x6, x4, [x29, #232]
    4a18:	52800001 	mov	w1, #0x0                   	// #0
    4a1c:	b940fba7 	ldr	w7, [x29, #248]
    4a20:	f94087a3 	ldr	x3, [x29, #264]
    4a24:	39400480 	ldrb	w0, [x4, #1]
    4a28:	7100001f 	cmp	w0, #0x0
    4a2c:	1a9f07e0 	cset	w0, ne  // ne = any
    4a30:	8b000084 	add	x4, x4, x0
    4a34:	17ffff95 	b	4888 <_vfprintf_r+0x19e0>
    4a38:	3100405f 	cmn	w2, #0x10
    4a3c:	4b0203f8 	neg	w24, w2
    4a40:	5400030a 	b.ge	4aa0 <_vfprintf_r+0x1bf8>  // b.tcont
    4a44:	d2800219 	mov	x25, #0x10                  	// #16
    4a48:	f9408fbc 	ldr	x28, [x29, #280]
    4a4c:	14000005 	b	4a60 <_vfprintf_r+0x1bb8>
    4a50:	910040c6 	add	x6, x6, #0x10
    4a54:	51004318 	sub	w24, w24, #0x10
    4a58:	7100431f 	cmp	w24, #0x10
    4a5c:	5400022d 	b.le	4aa0 <_vfprintf_r+0x1bf8>
    4a60:	11000421 	add	w1, w1, #0x1
    4a64:	91004000 	add	x0, x0, #0x10
    4a68:	a90064db 	stp	x27, x25, [x6]
    4a6c:	71001c3f 	cmp	w1, #0x7
    4a70:	b9017ba1 	str	w1, [x29, #376]
    4a74:	f900c3a0 	str	x0, [x29, #384]
    4a78:	54fffecd 	b.le	4a50 <_vfprintf_r+0x1ba8>
    4a7c:	9105c3a2 	add	x2, x29, #0x170
    4a80:	aa1c03e1 	mov	x1, x28
    4a84:	aa1703e0 	mov	x0, x23
    4a88:	94001474 	bl	9c58 <__sprint_r>
    4a8c:	35fffae0 	cbnz	w0, 49e8 <_vfprintf_r+0x1b40>
    4a90:	9107c3a6 	add	x6, x29, #0x1f0
    4a94:	b9417ba1 	ldr	w1, [x29, #376]
    4a98:	f940c3a0 	ldr	x0, [x29, #384]
    4a9c:	17ffffee 	b	4a54 <_vfprintf_r+0x1bac>
    4aa0:	93407f02 	sxtw	x2, w24
    4aa4:	f90004c2 	str	x2, [x6, #8]
    4aa8:	8b020000 	add	x0, x0, x2
    4aac:	b0000042 	adrp	x2, d000 <__trunctfdf2+0x290>
    4ab0:	910c0042 	add	x2, x2, #0x300
    4ab4:	11000421 	add	w1, w1, #0x1
    4ab8:	91004042 	add	x2, x2, #0x10
    4abc:	b9017ba1 	str	w1, [x29, #376]
    4ac0:	f90000c2 	str	x2, [x6]
    4ac4:	71001c3f 	cmp	w1, #0x7
    4ac8:	f900c3a0 	str	x0, [x29, #384]
    4acc:	540000ec 	b.gt	4ae8 <_vfprintf_r+0x1c40>
    4ad0:	910040c6 	add	x6, x6, #0x10
    4ad4:	17fffdbc 	b	41c4 <_vfprintf_r+0x131c>
    4ad8:	f9408fb6 	ldr	x22, [x29, #280]
    4adc:	17fffba9 	b	3980 <_vfprintf_r+0xad8>
    4ae0:	aa0603e3 	mov	x3, x6
    4ae4:	17fffdcc 	b	4214 <_vfprintf_r+0x136c>
    4ae8:	f9408fa1 	ldr	x1, [x29, #280]
    4aec:	9105c3a2 	add	x2, x29, #0x170
    4af0:	aa1703e0 	mov	x0, x23
    4af4:	94001459 	bl	9c58 <__sprint_r>
    4af8:	35ff8a80 	cbnz	w0, 3c48 <_vfprintf_r+0xda0>
    4afc:	9107c3a6 	add	x6, x29, #0x1f0
    4b00:	b9417ba1 	ldr	w1, [x29, #376]
    4b04:	f940c3a0 	ldr	x0, [x29, #384]
    4b08:	17fffdaf 	b	41c4 <_vfprintf_r+0x131c>
    4b0c:	37f83c40 	tbnz	w0, #31, 5294 <_vfprintf_r+0x23ec>
    4b10:	f94083a0 	ldr	x0, [x29, #256]
    4b14:	91003c01 	add	x1, x0, #0xf
    4b18:	927df021 	and	x1, x1, #0xfffffffffffffff8
    4b1c:	f90083a1 	str	x1, [x29, #256]
    4b20:	fd400008 	ldr	d8, [x0]
    4b24:	1e60c101 	fabs	d1, d8
    4b28:	92f00200 	mov	x0, #0x7fefffffffffffff    	// #9218868437227405311
    4b2c:	9e670000 	fmov	d0, x0
    4b30:	1e602020 	fcmp	d1, d0
    4b34:	5400028d 	b.le	4b84 <_vfprintf_r+0x1cdc>
    4b38:	1e602118 	fcmpe	d8, #0.0
    4b3c:	54001764 	b.mi	4e28 <_vfprintf_r+0x1f80>  // b.first
    4b40:	39453fa1 	ldrb	w1, [x29, #335]
    4b44:	71011f9f 	cmp	w28, #0x47
    4b48:	b0000040 	adrp	x0, d000 <__trunctfdf2+0x290>
    4b4c:	b0000043 	adrp	x3, d000 <__trunctfdf2+0x290>
    4b50:	9114a000 	add	x0, x0, #0x528
    4b54:	9114c063 	add	x3, x3, #0x530
    4b58:	12187ad6 	and	w22, w22, #0xffffff7f
    4b5c:	9a80c07a 	csel	x26, x3, x0, gt
    4b60:	52800074 	mov	w20, #0x3                   	// #3
    4b64:	b900e3bf 	str	wzr, [x29, #224]
    4b68:	2a1403f8 	mov	w24, w20
    4b6c:	b900ebbf 	str	wzr, [x29, #232]
    4b70:	52800007 	mov	w7, #0x0                   	// #0
    4b74:	b900fbbf 	str	wzr, [x29, #248]
    4b78:	f90087bf 	str	xzr, [x29, #264]
    4b7c:	34ff2861 	cbz	w1, 3088 <_vfprintf_r+0x1e0>
    4b80:	17fffa89 	b	35a4 <_vfprintf_r+0x6fc>
    4b84:	1e682100 	fcmp	d8, d8
    4b88:	54003306 	b.vs	51e8 <_vfprintf_r+0x2340>
    4b8c:	121a7b98 	and	w24, w28, #0xffffffdf
    4b90:	fd0037a9 	str	d9, [x29, #104]
    4b94:	7101071f 	cmp	w24, #0x41
    4b98:	540011e1 	b.ne	4dd4 <_vfprintf_r+0x1f2c>  // b.any
    4b9c:	7101879f 	cmp	w28, #0x61
    4ba0:	52800600 	mov	w0, #0x30                  	// #48
    4ba4:	52800f01 	mov	w1, #0x78                  	// #120
    4ba8:	390543a0 	strb	w0, [x29, #336]
    4bac:	52800b00 	mov	w0, #0x58                  	// #88
    4bb0:	1a811000 	csel	w0, w0, w1, ne  // ne = any
    4bb4:	390547a0 	strb	w0, [x29, #337]
    4bb8:	71018cff 	cmp	w7, #0x63
    4bbc:	321f02d4 	orr	w20, w22, #0x2
    4bc0:	5400268c 	b.gt	5090 <_vfprintf_r+0x21e8>
    4bc4:	9e660100 	fmov	x0, d8
    4bc8:	52802041 	mov	w1, #0x102                 	// #258
    4bcc:	910623ba 	add	x26, x29, #0x188
    4bd0:	2a0102d6 	orr	w22, w22, w1
    4bd4:	f90087bf 	str	xzr, [x29, #264]
    4bd8:	d360fc00 	lsr	x0, x0, #32
    4bdc:	1e604109 	fmov	d9, d8
    4be0:	52800019 	mov	w25, #0x0                   	// #0
    4be4:	37f812e0 	tbnz	w0, #31, 4e40 <_vfprintf_r+0x1f98>
    4be8:	7101071f 	cmp	w24, #0x41
    4bec:	540015e0 	b.eq	4ea8 <_vfprintf_r+0x2000>  // b.none
    4bf0:	71011b1f 	cmp	w24, #0x46
    4bf4:	540012c0 	b.eq	4e4c <_vfprintf_r+0x1fa4>  // b.none
    4bf8:	7101171f 	cmp	w24, #0x45
    4bfc:	540026a1 	b.ne	50d0 <_vfprintf_r+0x2228>  // b.any
    4c00:	1e604120 	fmov	d0, d9
    4c04:	110004ea 	add	w10, w7, #0x1
    4c08:	2a0a03e2 	mov	w2, w10
    4c0c:	f90077a6 	str	x6, [x29, #232]
    4c10:	b900f3a7 	str	w7, [x29, #240]
    4c14:	9105a3a5 	add	x5, x29, #0x168
    4c18:	b900fbaa 	str	w10, [x29, #248]
    4c1c:	910573a4 	add	x4, x29, #0x15c
    4c20:	910563a3 	add	x3, x29, #0x158
    4c24:	52800041 	mov	w1, #0x2                   	// #2
    4c28:	aa1703e0 	mov	x0, x23
    4c2c:	94000459 	bl	5d90 <_dtoa_r>
    4c30:	b940f3a7 	ldr	w7, [x29, #240]
    4c34:	aa0003fa 	mov	x26, x0
    4c38:	b940fbaa 	ldr	w10, [x29, #248]
    4c3c:	f94077a6 	ldr	x6, [x29, #232]
    4c40:	8b2ac341 	add	x1, x26, w10, sxtw
    4c44:	1e602128 	fcmp	d9, #0.0
    4c48:	aa0103e0 	mov	x0, x1
    4c4c:	54000160 	b.eq	4c78 <_vfprintf_r+0x1dd0>  // b.none
    4c50:	f940b7a0 	ldr	x0, [x29, #360]
    4c54:	52800604 	mov	w4, #0x30                  	// #48
    4c58:	eb00003f 	cmp	x1, x0
    4c5c:	540000e9 	b.ls	4c78 <_vfprintf_r+0x1dd0>  // b.plast
    4c60:	91000402 	add	x2, x0, #0x1
    4c64:	f900b7a2 	str	x2, [x29, #360]
    4c68:	39000004 	strb	w4, [x0]
    4c6c:	f940b7a0 	ldr	x0, [x29, #360]
    4c70:	eb00003f 	cmp	x1, x0
    4c74:	54ffff68 	b.hi	4c60 <_vfprintf_r+0x1db8>  // b.pmore
    4c78:	b9415ba1 	ldr	w1, [x29, #344]
    4c7c:	cb1a0000 	sub	x0, x0, x26
    4c80:	b900f3a0 	str	w0, [x29, #240]
    4c84:	71011f1f 	cmp	w24, #0x47
    4c88:	b900fba1 	str	w1, [x29, #248]
    4c8c:	540002a0 	b.eq	4ce0 <_vfprintf_r+0x1e38>  // b.none
    4c90:	71011b1f 	cmp	w24, #0x46
    4c94:	54000301 	b.ne	4cf4 <_vfprintf_r+0x1e4c>  // b.any
    4c98:	b940fba0 	ldr	w0, [x29, #248]
    4c9c:	7100001f 	cmp	w0, #0x0
    4ca0:	54002bed 	b.le	521c <_vfprintf_r+0x2374>
    4ca4:	35002967 	cbnz	w7, 51d0 <_vfprintf_r+0x2328>
    4ca8:	37002954 	tbnz	w20, #0, 51d0 <_vfprintf_r+0x2328>
    4cac:	b940fbb8 	ldr	w24, [x29, #248]
    4cb0:	52800cdc 	mov	w28, #0x66                  	// #102
    4cb4:	37501ad4 	tbnz	w20, #10, 500c <_vfprintf_r+0x2164>
    4cb8:	7100031f 	cmp	w24, #0x0
    4cbc:	1a9fa314 	csel	w20, w24, wzr, ge  // ge = tcont
    4cc0:	b900e3bf 	str	wzr, [x29, #224]
    4cc4:	b900ebbf 	str	wzr, [x29, #232]
    4cc8:	35000a39 	cbnz	w25, 4e0c <_vfprintf_r+0x1f64>
    4ccc:	39453fa1 	ldrb	w1, [x29, #335]
    4cd0:	52800007 	mov	w7, #0x0                   	// #0
    4cd4:	fd4037a9 	ldr	d9, [x29, #104]
    4cd8:	34ff1d81 	cbz	w1, 3088 <_vfprintf_r+0x1e0>
    4cdc:	17fffa32 	b	35a4 <_vfprintf_r+0x6fc>
    4ce0:	6b0100ff 	cmp	w7, w1
    4ce4:	3a43a821 	ccmn	w1, #0x3, #0x1, ge  // ge = tcont
    4ce8:	5400056a 	b.ge	4d94 <_vfprintf_r+0x1eec>  // b.tcont
    4cec:	51000b9c 	sub	w28, w28, #0x2
    4cf0:	121a7b98 	and	w24, w28, #0xffffffdf
    4cf4:	12001f80 	and	w0, w28, #0xff
    4cf8:	7101071f 	cmp	w24, #0x41
    4cfc:	11003c01 	add	w1, w0, #0xf
    4d00:	12001c21 	and	w1, w1, #0xff
    4d04:	1a811000 	csel	w0, w0, w1, ne  // ne = any
    4d08:	390583a0 	strb	w0, [x29, #352]
    4d0c:	b940fba0 	ldr	w0, [x29, #248]
    4d10:	51000400 	sub	w0, w0, #0x1
    4d14:	b9015ba0 	str	w0, [x29, #344]
    4d18:	37f828e0 	tbnz	w0, #31, 5234 <_vfprintf_r+0x238c>
    4d1c:	52800561 	mov	w1, #0x2b                  	// #43
    4d20:	390587a1 	strb	w1, [x29, #353]
    4d24:	7100241f 	cmp	w0, #0x9
    4d28:	540020ac 	b.gt	513c <_vfprintf_r+0x2294>
    4d2c:	910583a1 	add	x1, x29, #0x160
    4d30:	7101071f 	cmp	w24, #0x41
    4d34:	91000822 	add	x2, x1, #0x2
    4d38:	54000080 	b.eq	4d48 <_vfprintf_r+0x1ea0>  // b.none
    4d3c:	52800602 	mov	w2, #0x30                  	// #48
    4d40:	39058ba2 	strb	w2, [x29, #354]
    4d44:	91000c22 	add	x2, x1, #0x3
    4d48:	1100c000 	add	w0, w0, #0x30
    4d4c:	39000040 	strb	w0, [x2]
    4d50:	91000440 	add	x0, x2, #0x1
    4d54:	cb010000 	sub	x0, x0, x1
    4d58:	b940f3a1 	ldr	w1, [x29, #240]
    4d5c:	b900afa0 	str	w0, [x29, #172]
    4d60:	7100043f 	cmp	w1, #0x1
    4d64:	0b000038 	add	w24, w1, w0
    4d68:	5400272d 	b.le	524c <_vfprintf_r+0x23a4>
    4d6c:	b940dba0 	ldr	w0, [x29, #216]
    4d70:	0b000318 	add	w24, w24, w0
    4d74:	12157a89 	and	w9, w20, #0xfffffbff
    4d78:	7100031f 	cmp	w24, #0x0
    4d7c:	32180136 	orr	w22, w9, #0x100
    4d80:	1a9fa314 	csel	w20, w24, wzr, ge  // ge = tcont
    4d84:	b900e3bf 	str	wzr, [x29, #224]
    4d88:	b900ebbf 	str	wzr, [x29, #232]
    4d8c:	b900fbbf 	str	wzr, [x29, #248]
    4d90:	17ffffce 	b	4cc8 <_vfprintf_r+0x1e20>
    4d94:	b940fba1 	ldr	w1, [x29, #248]
    4d98:	6b01001f 	cmp	w0, w1
    4d9c:	5400122c 	b.gt	4fe0 <_vfprintf_r+0x2138>
    4da0:	2a0103e0 	mov	w0, w1
    4da4:	f240029f 	tst	x20, #0x1
    4da8:	b940dba1 	ldr	w1, [x29, #216]
    4dac:	0b010018 	add	w24, w0, w1
    4db0:	1a801318 	csel	w24, w24, w0, ne  // ne = any
    4db4:	36500094 	tbz	w20, #10, 4dc4 <_vfprintf_r+0x1f1c>
    4db8:	b940fba0 	ldr	w0, [x29, #248]
    4dbc:	7100001f 	cmp	w0, #0x0
    4dc0:	5400124c 	b.gt	5008 <_vfprintf_r+0x2160>
    4dc4:	7100031f 	cmp	w24, #0x0
    4dc8:	52800cfc 	mov	w28, #0x67                  	// #103
    4dcc:	1a9fa314 	csel	w20, w24, wzr, ge  // ge = tcont
    4dd0:	17ffffbc 	b	4cc0 <_vfprintf_r+0x1e18>
    4dd4:	9e660101 	fmov	x1, d8
    4dd8:	2a1603f4 	mov	w20, w22
    4ddc:	310004ff 	cmn	w7, #0x1
    4de0:	321802c2 	orr	w2, w22, #0x100
    4de4:	d360fc21 	lsr	x1, x1, #32
    4de8:	2a0103e0 	mov	w0, w1
    4dec:	54001a00 	b.eq	512c <_vfprintf_r+0x2284>  // b.none
    4df0:	71011f1f 	cmp	w24, #0x47
    4df4:	54001901 	b.ne	5114 <_vfprintf_r+0x226c>  // b.any
    4df8:	f90087bf 	str	xzr, [x29, #264]
    4dfc:	2a0203f6 	mov	w22, w2
    4e00:	35ffeee7 	cbnz	w7, 4bdc <_vfprintf_r+0x1d34>
    4e04:	52800027 	mov	w7, #0x1                   	// #1
    4e08:	17ffff75 	b	4bdc <_vfprintf_r+0x1d34>
    4e0c:	528005a0 	mov	w0, #0x2d                  	// #45
    4e10:	528005a1 	mov	w1, #0x2d                  	// #45
    4e14:	39053fa0 	strb	w0, [x29, #335]
    4e18:	52800007 	mov	w7, #0x0                   	// #0
    4e1c:	fd4037a9 	ldr	d9, [x29, #104]
    4e20:	11000694 	add	w20, w20, #0x1
    4e24:	17fff899 	b	3088 <_vfprintf_r+0x1e0>
    4e28:	528005a0 	mov	w0, #0x2d                  	// #45
    4e2c:	528005a1 	mov	w1, #0x2d                  	// #45
    4e30:	39053fa0 	strb	w0, [x29, #335]
    4e34:	17ffff44 	b	4b44 <_vfprintf_r+0x1c9c>
    4e38:	2a0203f6 	mov	w22, w2
    4e3c:	f90087bf 	str	xzr, [x29, #264]
    4e40:	1e614109 	fneg	d9, d8
    4e44:	528005b9 	mov	w25, #0x2d                  	// #45
    4e48:	17ffff68 	b	4be8 <_vfprintf_r+0x1d40>
    4e4c:	1e604120 	fmov	d0, d9
    4e50:	2a0703e2 	mov	w2, w7
    4e54:	52800061 	mov	w1, #0x3                   	// #3
    4e58:	f9007ba6 	str	x6, [x29, #240]
    4e5c:	b900fba7 	str	w7, [x29, #248]
    4e60:	9105a3a5 	add	x5, x29, #0x168
    4e64:	910573a4 	add	x4, x29, #0x15c
    4e68:	910563a3 	add	x3, x29, #0x158
    4e6c:	aa1703e0 	mov	x0, x23
    4e70:	940003c8 	bl	5d90 <_dtoa_r>
    4e74:	aa0003fa 	mov	x26, x0
    4e78:	39400000 	ldrb	w0, [x0]
    4e7c:	2f00e400 	movi	d0, #0x0
    4e80:	b940fba7 	ldr	w7, [x29, #248]
    4e84:	7100c01f 	cmp	w0, #0x30
    4e88:	f9407ba6 	ldr	x6, [x29, #240]
    4e8c:	93407ce1 	sxtw	x1, w7
    4e90:	1e600524 	fccmp	d9, d0, #0x4, eq  // eq = none
    4e94:	54001f21 	b.ne	5278 <_vfprintf_r+0x23d0>  // b.any
    4e98:	b9415ba0 	ldr	w0, [x29, #344]
    4e9c:	8b20c020 	add	x0, x1, w0, sxtw
    4ea0:	8b000341 	add	x1, x26, x0
    4ea4:	17ffff68 	b	4c44 <_vfprintf_r+0x1d9c>
    4ea8:	1e604120 	fmov	d0, d9
    4eac:	f9007ba6 	str	x6, [x29, #240]
    4eb0:	b900fba7 	str	w7, [x29, #248]
    4eb4:	910563a0 	add	x0, x29, #0x158
    4eb8:	94001214 	bl	9708 <frexp>
    4ebc:	1e681001 	fmov	d1, #1.250000000000000000e-001
    4ec0:	b940fba7 	ldr	w7, [x29, #248]
    4ec4:	f9407ba6 	ldr	x6, [x29, #240]
    4ec8:	1e610800 	fmul	d0, d0, d1
    4ecc:	1e602008 	fcmp	d0, #0.0
    4ed0:	54000061 	b.ne	4edc <_vfprintf_r+0x2034>  // b.any
    4ed4:	52800020 	mov	w0, #0x1                   	// #1
    4ed8:	b9015ba0 	str	w0, [x29, #344]
    4edc:	7101879f 	cmp	w28, #0x61
    4ee0:	b0000040 	adrp	x0, d000 <__trunctfdf2+0x290>
    4ee4:	b0000049 	adrp	x9, d000 <__trunctfdf2+0x290>
    4ee8:	91152000 	add	x0, x0, #0x548
    4eec:	91158129 	add	x9, x9, #0x560
    4ef0:	510004e7 	sub	w7, w7, #0x1
    4ef4:	1e661002 	fmov	d2, #1.600000000000000000e+001
    4ef8:	9a801129 	csel	x9, x9, x0, ne  // ne = any
    4efc:	aa1a03e2 	mov	x2, x26
    4f00:	14000005 	b	4f14 <_vfprintf_r+0x206c>
    4f04:	1e602008 	fcmp	d0, #0.0
    4f08:	510004e7 	sub	w7, w7, #0x1
    4f0c:	54000180 	b.eq	4f3c <_vfprintf_r+0x2094>  // b.none
    4f10:	aa0003e2 	mov	x2, x0
    4f14:	1e620800 	fmul	d0, d0, d2
    4f18:	aa0203e0 	mov	x0, x2
    4f1c:	310004ff 	cmn	w7, #0x1
    4f20:	2a0703e4 	mov	w4, w7
    4f24:	1e780001 	fcvtzs	w1, d0
    4f28:	1e620021 	scvtf	d1, w1
    4f2c:	3861c923 	ldrb	w3, [x9, w1, sxtw]
    4f30:	38001403 	strb	w3, [x0], #1
    4f34:	1e613800 	fsub	d0, d0, d1
    4f38:	54fffe61 	b.ne	4f04 <_vfprintf_r+0x205c>  // b.any
    4f3c:	1e6c1001 	fmov	d1, #5.000000000000000000e-001
    4f40:	1e612010 	fcmpe	d0, d1
    4f44:	5400008c 	b.gt	4f54 <_vfprintf_r+0x20ac>
    4f48:	1e612000 	fcmp	d0, d1
    4f4c:	54000381 	b.ne	4fbc <_vfprintf_r+0x2114>  // b.any
    4f50:	36000361 	tbz	w1, #0, 4fbc <_vfprintf_r+0x2114>
    4f54:	f900b7a2 	str	x2, [x29, #360]
    4f58:	39403d21 	ldrb	w1, [x9, #15]
    4f5c:	385ff004 	ldurb	w4, [x0, #-1]
    4f60:	6b04003f 	cmp	w1, w4
    4f64:	54001841 	b.ne	526c <_vfprintf_r+0x23c4>  // b.any
    4f68:	aa0003e1 	mov	x1, x0
    4f6c:	52800605 	mov	w5, #0x30                  	// #48
    4f70:	381ff025 	sturb	w5, [x1, #-1]
    4f74:	f940b7a1 	ldr	x1, [x29, #360]
    4f78:	d1000422 	sub	x2, x1, #0x1
    4f7c:	f900b7a2 	str	x2, [x29, #360]
    4f80:	385ff022 	ldurb	w2, [x1, #-1]
    4f84:	6b04005f 	cmp	w2, w4
    4f88:	54ffff40 	b.eq	4f70 <_vfprintf_r+0x20c8>  // b.none
    4f8c:	7100e45f 	cmp	w2, #0x39
    4f90:	11000442 	add	w2, w2, #0x1
    4f94:	12001c42 	and	w2, w2, #0xff
    4f98:	540000e0 	b.eq	4fb4 <_vfprintf_r+0x210c>  // b.none
    4f9c:	381ff022 	sturb	w2, [x1, #-1]
    4fa0:	4b1a0000 	sub	w0, w0, w26
    4fa4:	b900f3a0 	str	w0, [x29, #240]
    4fa8:	b9415ba0 	ldr	w0, [x29, #344]
    4fac:	b900fba0 	str	w0, [x29, #248]
    4fb0:	17ffff51 	b	4cf4 <_vfprintf_r+0x1e4c>
    4fb4:	39402922 	ldrb	w2, [x9, #10]
    4fb8:	17fffff9 	b	4f9c <_vfprintf_r+0x20f4>
    4fbc:	37ffff24 	tbnz	w4, #31, 4fa0 <_vfprintf_r+0x20f8>
    4fc0:	93407c81 	sxtw	x1, w4
    4fc4:	52800602 	mov	w2, #0x30                  	// #48
    4fc8:	91000421 	add	x1, x1, #0x1
    4fcc:	8b010001 	add	x1, x0, x1
    4fd0:	38001402 	strb	w2, [x0], #1
    4fd4:	eb01001f 	cmp	x0, x1
    4fd8:	54ffffc1 	b.ne	4fd0 <_vfprintf_r+0x2128>  // b.any
    4fdc:	17fffff1 	b	4fa0 <_vfprintf_r+0x20f8>
    4fe0:	b940dba1 	ldr	w1, [x29, #216]
    4fe4:	52800cfc 	mov	w28, #0x67                  	// #103
    4fe8:	0b000038 	add	w24, w1, w0
    4fec:	b940fba0 	ldr	w0, [x29, #248]
    4ff0:	7100001f 	cmp	w0, #0x0
    4ff4:	54ffe60c 	b.gt	4cb4 <_vfprintf_r+0x1e0c>
    4ff8:	4b000318 	sub	w24, w24, w0
    4ffc:	31000718 	adds	w24, w24, #0x1
    5000:	1a9f5314 	csel	w20, w24, wzr, pl  // pl = nfrst
    5004:	17ffff2f 	b	4cc0 <_vfprintf_r+0x1e18>
    5008:	52800cfc 	mov	w28, #0x67                  	// #103
    500c:	f94053a3 	ldr	x3, [x29, #160]
    5010:	b940fba1 	ldr	w1, [x29, #248]
    5014:	b900e3bf 	str	wzr, [x29, #224]
    5018:	39400060 	ldrb	w0, [x3]
    501c:	b900ebbf 	str	wzr, [x29, #232]
    5020:	7103fc1f 	cmp	w0, #0xff
    5024:	540001a0 	b.eq	5058 <_vfprintf_r+0x21b0>  // b.none
    5028:	6b01001f 	cmp	w0, w1
    502c:	5400016a 	b.ge	5058 <_vfprintf_r+0x21b0>  // b.tcont
    5030:	39400462 	ldrb	w2, [x3, #1]
    5034:	4b000021 	sub	w1, w1, w0
    5038:	34000242 	cbz	w2, 5080 <_vfprintf_r+0x21d8>
    503c:	b940eba0 	ldr	w0, [x29, #232]
    5040:	91000463 	add	x3, x3, #0x1
    5044:	11000400 	add	w0, w0, #0x1
    5048:	b900eba0 	str	w0, [x29, #232]
    504c:	2a0203e0 	mov	w0, w2
    5050:	7103fc1f 	cmp	w0, #0xff
    5054:	54fffea1 	b.ne	5028 <_vfprintf_r+0x2180>  // b.any
    5058:	b940eba0 	ldr	w0, [x29, #232]
    505c:	b900fba1 	str	w1, [x29, #248]
    5060:	b940e3a1 	ldr	w1, [x29, #224]
    5064:	f90053a3 	str	x3, [x29, #160]
    5068:	0b010000 	add	w0, w0, w1
    506c:	b9409ba1 	ldr	w1, [x29, #152]
    5070:	1b016018 	madd	w24, w0, w1, w24
    5074:	7100031f 	cmp	w24, #0x0
    5078:	1a9fa314 	csel	w20, w24, wzr, ge  // ge = tcont
    507c:	17ffff13 	b	4cc8 <_vfprintf_r+0x1e20>
    5080:	b940e3a2 	ldr	w2, [x29, #224]
    5084:	11000442 	add	w2, w2, #0x1
    5088:	b900e3a2 	str	w2, [x29, #224]
    508c:	17ffffe5 	b	5020 <_vfprintf_r+0x2178>
    5090:	110004e1 	add	w1, w7, #0x1
    5094:	aa1703e0 	mov	x0, x23
    5098:	f9007ba6 	str	x6, [x29, #240]
    509c:	93407c21 	sxtw	x1, w1
    50a0:	b900fba7 	str	w7, [x29, #248]
    50a4:	94000b3b 	bl	7d90 <_malloc_r>
    50a8:	aa0003fa 	mov	x26, x0
    50ac:	b4001040 	cbz	x0, 52b4 <_vfprintf_r+0x240c>
    50b0:	9e660100 	fmov	x0, d8
    50b4:	52802041 	mov	w1, #0x102                 	// #258
    50b8:	b940fba7 	ldr	w7, [x29, #248]
    50bc:	2a0102d6 	orr	w22, w22, w1
    50c0:	f9407ba6 	ldr	x6, [x29, #240]
    50c4:	f90087ba 	str	x26, [x29, #264]
    50c8:	d360fc00 	lsr	x0, x0, #32
    50cc:	17fffec4 	b	4bdc <_vfprintf_r+0x1d34>
    50d0:	1e604120 	fmov	d0, d9
    50d4:	2a0703e2 	mov	w2, w7
    50d8:	f9007ba6 	str	x6, [x29, #240]
    50dc:	9105a3a5 	add	x5, x29, #0x168
    50e0:	b900fba7 	str	w7, [x29, #248]
    50e4:	910573a4 	add	x4, x29, #0x15c
    50e8:	910563a3 	add	x3, x29, #0x158
    50ec:	52800041 	mov	w1, #0x2                   	// #2
    50f0:	aa1703e0 	mov	x0, x23
    50f4:	94000327 	bl	5d90 <_dtoa_r>
    50f8:	71011f1f 	cmp	w24, #0x47
    50fc:	aa0003fa 	mov	x26, x0
    5100:	b940fba7 	ldr	w7, [x29, #248]
    5104:	f9407ba6 	ldr	x6, [x29, #240]
    5108:	54000840 	b.eq	5210 <_vfprintf_r+0x2368>  // b.none
    510c:	2a0703ea 	mov	w10, w7
    5110:	17fffecc 	b	4c40 <_vfprintf_r+0x1d98>
    5114:	37ffe921 	tbnz	w1, #31, 4e38 <_vfprintf_r+0x1f90>
    5118:	1e604109 	fmov	d9, d8
    511c:	2a0203f6 	mov	w22, w2
    5120:	52800019 	mov	w25, #0x0                   	// #0
    5124:	f90087bf 	str	xzr, [x29, #264]
    5128:	17fffeb2 	b	4bf0 <_vfprintf_r+0x1d48>
    512c:	2a0203f6 	mov	w22, w2
    5130:	528000c7 	mov	w7, #0x6                   	// #6
    5134:	f90087bf 	str	xzr, [x29, #264]
    5138:	17fffea9 	b	4bdc <_vfprintf_r+0x1d34>
    513c:	529999a7 	mov	w7, #0xcccd                	// #52429
    5140:	9105bfa4 	add	x4, x29, #0x16f
    5144:	72b99987 	movk	w7, #0xcccc, lsl #16
    5148:	14000002 	b	5150 <_vfprintf_r+0x22a8>
    514c:	aa0503e4 	mov	x4, x5
    5150:	9ba77c02 	umull	x2, w0, w7
    5154:	d1000485 	sub	x5, x4, #0x1
    5158:	d363fc42 	lsr	x2, x2, #35
    515c:	7100245f 	cmp	w2, #0x9
    5160:	0b020841 	add	w1, w2, w2, lsl #2
    5164:	4b010401 	sub	w1, w0, w1, lsl #1
    5168:	2a0203e0 	mov	w0, w2
    516c:	1100c021 	add	w1, w1, #0x30
    5170:	381ff081 	sturb	w1, [x4, #-1]
    5174:	54fffecc 	b.gt	514c <_vfprintf_r+0x22a4>
    5178:	1100c040 	add	w0, w2, #0x30
    517c:	9105bfa7 	add	x7, x29, #0x16f
    5180:	12001c00 	and	w0, w0, #0xff
    5184:	381ff0a0 	sturb	w0, [x5, #-1]
    5188:	d1000881 	sub	x1, x4, #0x2
    518c:	eb0100ff 	cmp	x7, x1
    5190:	540007c9 	b.ls	5288 <_vfprintf_r+0x23e0>  // b.plast
    5194:	cb0400e7 	sub	x7, x7, x4
    5198:	910583a1 	add	x1, x29, #0x160
    519c:	92800002 	mov	x2, #0xffffffffffffffff    	// #-1
    51a0:	14000003 	b	51ac <_vfprintf_r+0x2304>
    51a4:	38626880 	ldrb	w0, [x4, x2]
    51a8:	91000442 	add	x2, x2, #0x1
    51ac:	8b020023 	add	x3, x1, x2
    51b0:	eb0200ff 	cmp	x7, x2
    51b4:	39000c60 	strb	w0, [x3, #3]
    51b8:	54ffff61 	b.ne	51a4 <_vfprintf_r+0x22fc>  // b.any
    51bc:	9105c3a0 	add	x0, x29, #0x170
    51c0:	cb050002 	sub	x2, x0, x5
    51c4:	91000820 	add	x0, x1, #0x2
    51c8:	8b020000 	add	x0, x0, x2
    51cc:	17fffee2 	b	4d54 <_vfprintf_r+0x1eac>
    51d0:	b940dba1 	ldr	w1, [x29, #216]
    51d4:	52800cdc 	mov	w28, #0x66                  	// #102
    51d8:	b940fba0 	ldr	w0, [x29, #248]
    51dc:	0b010018 	add	w24, w0, w1
    51e0:	0b070318 	add	w24, w24, w7
    51e4:	17fffeb4 	b	4cb4 <_vfprintf_r+0x1e0c>
    51e8:	71011f9f 	cmp	w28, #0x47
    51ec:	90000040 	adrp	x0, d000 <__trunctfdf2+0x290>
    51f0:	90000043 	adrp	x3, d000 <__trunctfdf2+0x290>
    51f4:	9114e000 	add	x0, x0, #0x538
    51f8:	91150063 	add	x3, x3, #0x540
    51fc:	12187ad6 	and	w22, w22, #0xffffff7f
    5200:	9a80c07a 	csel	x26, x3, x0, gt
    5204:	52800074 	mov	w20, #0x3                   	// #3
    5208:	39453fa1 	ldrb	w1, [x29, #335]
    520c:	17fffe56 	b	4b64 <_vfprintf_r+0x1cbc>
    5210:	370004f4 	tbnz	w20, #0, 52ac <_vfprintf_r+0x2404>
    5214:	f940b7a0 	ldr	x0, [x29, #360]
    5218:	17fffe98 	b	4c78 <_vfprintf_r+0x1dd0>
    521c:	350001c7 	cbnz	w7, 5254 <_vfprintf_r+0x23ac>
    5220:	370001b4 	tbnz	w20, #0, 5254 <_vfprintf_r+0x23ac>
    5224:	52800034 	mov	w20, #0x1                   	// #1
    5228:	52800cdc 	mov	w28, #0x66                  	// #102
    522c:	2a1403f8 	mov	w24, w20
    5230:	17fffea4 	b	4cc0 <_vfprintf_r+0x1e18>
    5234:	b940fba1 	ldr	w1, [x29, #248]
    5238:	52800020 	mov	w0, #0x1                   	// #1
    523c:	4b010000 	sub	w0, w0, w1
    5240:	528005a1 	mov	w1, #0x2d                  	// #45
    5244:	390587a1 	strb	w1, [x29, #353]
    5248:	17fffeb7 	b	4d24 <_vfprintf_r+0x1e7c>
    524c:	3607d954 	tbz	w20, #0, 4d74 <_vfprintf_r+0x1ecc>
    5250:	17fffec7 	b	4d6c <_vfprintf_r+0x1ec4>
    5254:	b940dba0 	ldr	w0, [x29, #216]
    5258:	52800cdc 	mov	w28, #0x66                  	// #102
    525c:	11000418 	add	w24, w0, #0x1
    5260:	2b070318 	adds	w24, w24, w7
    5264:	1a9f5314 	csel	w20, w24, wzr, pl  // pl = nfrst
    5268:	17fffe96 	b	4cc0 <_vfprintf_r+0x1e18>
    526c:	2a0403e2 	mov	w2, w4
    5270:	aa0003e1 	mov	x1, x0
    5274:	17ffff46 	b	4f8c <_vfprintf_r+0x20e4>
    5278:	52800020 	mov	w0, #0x1                   	// #1
    527c:	4b070000 	sub	w0, w0, w7
    5280:	b9015ba0 	str	w0, [x29, #344]
    5284:	17ffff06 	b	4e9c <_vfprintf_r+0x1ff4>
    5288:	910583a1 	add	x1, x29, #0x160
    528c:	91058ba0 	add	x0, x29, #0x162
    5290:	17fffeb1 	b	4d54 <_vfprintf_r+0x1eac>
    5294:	b940aba0 	ldr	w0, [x29, #168]
    5298:	11004001 	add	w1, w0, #0x10
    529c:	7100003f 	cmp	w1, #0x0
    52a0:	5400016d 	b.le	52cc <_vfprintf_r+0x2424>
    52a4:	b900aba1 	str	w1, [x29, #168]
    52a8:	17fffe1a 	b	4b10 <_vfprintf_r+0x1c68>
    52ac:	8b27c341 	add	x1, x26, w7, sxtw
    52b0:	17fffe65 	b	4c44 <_vfprintf_r+0x1d9c>
    52b4:	f9408fb6 	ldr	x22, [x29, #280]
    52b8:	fd4037a9 	ldr	d9, [x29, #104]
    52bc:	794022c0 	ldrh	w0, [x22, #16]
    52c0:	321a0000 	orr	w0, w0, #0x40
    52c4:	790022c0 	strh	w0, [x22, #16]
    52c8:	17fff9ae 	b	3980 <_vfprintf_r+0xad8>
    52cc:	b940aba0 	ldr	w0, [x29, #168]
    52d0:	f9404ba2 	ldr	x2, [x29, #144]
    52d4:	b900aba1 	str	w1, [x29, #168]
    52d8:	8b20c040 	add	x0, x2, w0, sxtw
    52dc:	17fffe11 	b	4b20 <_vfprintf_r+0x1c78>
    52e0:	b94113a0 	ldr	w0, [x29, #272]
    52e4:	11002001 	add	w1, w0, #0x8
    52e8:	7100003f 	cmp	w1, #0x0
    52ec:	5400012d 	b.le	5310 <_vfprintf_r+0x2468>
    52f0:	b90113a1 	str	w1, [x29, #272]
    52f4:	17fffc65 	b	4488 <_vfprintf_r+0x15e0>
    52f8:	b94113a0 	ldr	w0, [x29, #272]
    52fc:	11002001 	add	w1, w0, #0x8
    5300:	7100003f 	cmp	w1, #0x0
    5304:	5400010d 	b.le	5324 <_vfprintf_r+0x247c>
    5308:	b90113a1 	str	w1, [x29, #272]
    530c:	17fffc6d 	b	44c0 <_vfprintf_r+0x1618>
    5310:	b94113a0 	ldr	w0, [x29, #272]
    5314:	f9405fa2 	ldr	x2, [x29, #184]
    5318:	b90113a1 	str	w1, [x29, #272]
    531c:	8b20c040 	add	x0, x2, w0, sxtw
    5320:	17fffc5e 	b	4498 <_vfprintf_r+0x15f0>
    5324:	b94113a0 	ldr	w0, [x29, #272]
    5328:	f9405fa2 	ldr	x2, [x29, #184]
    532c:	b90113a1 	str	w1, [x29, #272]
    5330:	8b20c040 	add	x0, x2, w0, sxtw
    5334:	39400014 	ldrb	w20, [x0]
    5338:	17fffce7 	b	46d4 <_vfprintf_r+0x182c>
    533c:	b94113a0 	ldr	w0, [x29, #272]
    5340:	f9405fa2 	ldr	x2, [x29, #184]
    5344:	b90113a1 	str	w1, [x29, #272]
    5348:	8b20c040 	add	x0, x2, w0, sxtw
    534c:	f9400014 	ldr	x20, [x0]
    5350:	17fffce1 	b	46d4 <_vfprintf_r+0x182c>
    5354:	b940aba0 	ldr	w0, [x29, #168]
    5358:	11004001 	add	w1, w0, #0x10
    535c:	7100003f 	cmp	w1, #0x0
    5360:	5400036d 	b.le	53cc <_vfprintf_r+0x2524>
    5364:	f94083a0 	ldr	x0, [x29, #256]
    5368:	b900aba1 	str	w1, [x29, #168]
    536c:	91003c00 	add	x0, x0, #0xf
    5370:	927cec00 	and	x0, x0, #0xfffffffffffffff0
    5374:	91004001 	add	x1, x0, #0x10
    5378:	f90083a1 	str	x1, [x29, #256]
    537c:	3dc00000 	ldr	q0, [x0]
    5380:	f9007fa6 	str	x6, [x29, #248]
    5384:	b9010ba7 	str	w7, [x29, #264]
    5388:	94001e7a 	bl	cd70 <__trunctfdf2>
    538c:	1e604008 	fmov	d8, d0
    5390:	b9410ba7 	ldr	w7, [x29, #264]
    5394:	f9407fa6 	ldr	x6, [x29, #248]
    5398:	17fffde3 	b	4b24 <_vfprintf_r+0x1c7c>
    539c:	b94113a1 	ldr	w1, [x29, #272]
    53a0:	37f80201 	tbnz	w1, #31, 53e0 <_vfprintf_r+0x2538>
    53a4:	f94083a1 	ldr	x1, [x29, #256]
    53a8:	91002c22 	add	x2, x1, #0xb
    53ac:	927df042 	and	x2, x2, #0xfffffffffffffff8
    53b0:	f90083a2 	str	x2, [x29, #256]
    53b4:	b9400027 	ldr	w7, [x1]
    53b8:	39400668 	ldrb	w8, [x19, #1]
    53bc:	aa0003f3 	mov	x19, x0
    53c0:	710000ff 	cmp	w7, #0x0
    53c4:	5a9fa0f4 	csinv	w20, w7, wzr, ge  // ge = tcont
    53c8:	17fff71e 	b	3040 <_vfprintf_r+0x198>
    53cc:	b940aba0 	ldr	w0, [x29, #168]
    53d0:	f9404ba2 	ldr	x2, [x29, #144]
    53d4:	b900aba1 	str	w1, [x29, #168]
    53d8:	8b20c040 	add	x0, x2, w0, sxtw
    53dc:	17ffffe8 	b	537c <_vfprintf_r+0x24d4>
    53e0:	b94113a1 	ldr	w1, [x29, #272]
    53e4:	11002022 	add	w2, w1, #0x8
    53e8:	7100005f 	cmp	w2, #0x0
    53ec:	5400012d 	b.le	5410 <_vfprintf_r+0x2568>
    53f0:	b90113a2 	str	w2, [x29, #272]
    53f4:	17ffffec 	b	53a4 <_vfprintf_r+0x24fc>
    53f8:	b94113a0 	ldr	w0, [x29, #272]
    53fc:	f9405fa2 	ldr	x2, [x29, #184]
    5400:	b90113a1 	str	w1, [x29, #272]
    5404:	8b20c040 	add	x0, x2, w0, sxtw
    5408:	f9400014 	ldr	x20, [x0]
    540c:	17fffc24 	b	449c <_vfprintf_r+0x15f4>
    5410:	b94113a1 	ldr	w1, [x29, #272]
    5414:	f9405fa3 	ldr	x3, [x29, #184]
    5418:	b90113a2 	str	w2, [x29, #272]
    541c:	8b21c061 	add	x1, x3, w1, sxtw
    5420:	17ffffe5 	b	53b4 <_vfprintf_r+0x250c>
    5424:	b94113a0 	ldr	w0, [x29, #272]
    5428:	f9405fa2 	ldr	x2, [x29, #184]
    542c:	b90113a1 	str	w1, [x29, #272]
    5430:	8b20c040 	add	x0, x2, w0, sxtw
    5434:	f9400014 	ldr	x20, [x0]
    5438:	17fff86d 	b	35ec <_vfprintf_r+0x744>
    543c:	b94113a0 	ldr	w0, [x29, #272]
    5440:	11002001 	add	w1, w0, #0x8
    5444:	7100003f 	cmp	w1, #0x0
    5448:	5400012d 	b.le	546c <_vfprintf_r+0x25c4>
    544c:	b90113a1 	str	w1, [x29, #272]
    5450:	17fffc3d 	b	4544 <_vfprintf_r+0x169c>
    5454:	b94113a0 	ldr	w0, [x29, #272]
    5458:	11002001 	add	w1, w0, #0x8
    545c:	7100003f 	cmp	w1, #0x0
    5460:	5400010d 	b.le	5480 <_vfprintf_r+0x25d8>
    5464:	b90113a1 	str	w1, [x29, #272]
    5468:	17fffc96 	b	46c0 <_vfprintf_r+0x1818>
    546c:	b94113a0 	ldr	w0, [x29, #272]
    5470:	f9405fa2 	ldr	x2, [x29, #184]
    5474:	b90113a1 	str	w1, [x29, #272]
    5478:	8b20c040 	add	x0, x2, w0, sxtw
    547c:	17fffc36 	b	4554 <_vfprintf_r+0x16ac>
    5480:	b94113a0 	ldr	w0, [x29, #272]
    5484:	f9405fa2 	ldr	x2, [x29, #184]
    5488:	b90113a1 	str	w1, [x29, #272]
    548c:	8b20c040 	add	x0, x2, w0, sxtw
    5490:	17fffc90 	b	46d0 <_vfprintf_r+0x1828>
    5494:	b94113a0 	ldr	w0, [x29, #272]
    5498:	f9405fa2 	ldr	x2, [x29, #184]
    549c:	b90113a1 	str	w1, [x29, #272]
    54a0:	8b20c040 	add	x0, x2, w0, sxtw
    54a4:	17fff823 	b	3530 <_vfprintf_r+0x688>
    54a8:	b94113a0 	ldr	w0, [x29, #272]
    54ac:	11002001 	add	w1, w0, #0x8
    54b0:	7100003f 	cmp	w1, #0x0
    54b4:	5400012d 	b.le	54d8 <_vfprintf_r+0x2630>
    54b8:	b90113a1 	str	w1, [x29, #272]
    54bc:	17fffc8a 	b	46e4 <_vfprintf_r+0x183c>
    54c0:	b94113a0 	ldr	w0, [x29, #272]
    54c4:	11002001 	add	w1, w0, #0x8
    54c8:	7100003f 	cmp	w1, #0x0
    54cc:	5400012d 	b.le	54f0 <_vfprintf_r+0x2648>
    54d0:	b90113a1 	str	w1, [x29, #272]
    54d4:	17fff90a 	b	38fc <_vfprintf_r+0xa54>
    54d8:	b94113a0 	ldr	w0, [x29, #272]
    54dc:	f9405fa2 	ldr	x2, [x29, #184]
    54e0:	b90113a1 	str	w1, [x29, #272]
    54e4:	8b20c040 	add	x0, x2, w0, sxtw
    54e8:	b9400014 	ldr	w20, [x0]
    54ec:	17fffbec 	b	449c <_vfprintf_r+0x15f4>
    54f0:	b94113a0 	ldr	w0, [x29, #272]
    54f4:	f9405fa2 	ldr	x2, [x29, #184]
    54f8:	b90113a1 	str	w1, [x29, #272]
    54fc:	8b20c040 	add	x0, x2, w0, sxtw
    5500:	17fff903 	b	390c <_vfprintf_r+0xa64>
    5504:	b94113a0 	ldr	w0, [x29, #272]
    5508:	11002001 	add	w1, w0, #0x8
    550c:	7100003f 	cmp	w1, #0x0
    5510:	540001ad 	b.le	5544 <_vfprintf_r+0x269c>
    5514:	b90113a1 	str	w1, [x29, #272]
    5518:	17fffb06 	b	4130 <_vfprintf_r+0x1288>
    551c:	37f801e0 	tbnz	w0, #31, 5558 <_vfprintf_r+0x26b0>
    5520:	f94083a0 	ldr	x0, [x29, #256]
    5524:	91003c01 	add	x1, x0, #0xf
    5528:	927df021 	and	x1, x1, #0xfffffffffffffff8
    552c:	f90083a1 	str	x1, [x29, #256]
    5530:	f9400000 	ldr	x0, [x0]
    5534:	aa1303fa 	mov	x26, x19
    5538:	b94117a1 	ldr	w1, [x29, #276]
    553c:	b9000001 	str	w1, [x0]
    5540:	17fff69b 	b	2fac <_vfprintf_r+0x104>
    5544:	b94113a0 	ldr	w0, [x29, #272]
    5548:	f9405fa2 	ldr	x2, [x29, #184]
    554c:	b90113a1 	str	w1, [x29, #272]
    5550:	8b20c040 	add	x0, x2, w0, sxtw
    5554:	17fffafb 	b	4140 <_vfprintf_r+0x1298>
    5558:	b94113a0 	ldr	w0, [x29, #272]
    555c:	11002001 	add	w1, w0, #0x8
    5560:	7100003f 	cmp	w1, #0x0
    5564:	54000bcd 	b.le	56dc <_vfprintf_r+0x2834>
    5568:	b90113a1 	str	w1, [x29, #272]
    556c:	17ffffed 	b	5520 <_vfprintf_r+0x2678>
    5570:	b94113a0 	ldr	w0, [x29, #272]
    5574:	11002001 	add	w1, w0, #0x8
    5578:	7100003f 	cmp	w1, #0x0
    557c:	5400012d 	b.le	55a0 <_vfprintf_r+0x26f8>
    5580:	b90113a1 	str	w1, [x29, #272]
    5584:	17fffbd8 	b	44e4 <_vfprintf_r+0x163c>
    5588:	b94113a0 	ldr	w0, [x29, #272]
    558c:	f9405fa2 	ldr	x2, [x29, #184]
    5590:	b90113a1 	str	w1, [x29, #272]
    5594:	8b20c040 	add	x0, x2, w0, sxtw
    5598:	79800014 	ldrsh	x20, [x0]
    559c:	17fff814 	b	35ec <_vfprintf_r+0x744>
    55a0:	b94113a0 	ldr	w0, [x29, #272]
    55a4:	f9405fa2 	ldr	x2, [x29, #184]
    55a8:	b90113a1 	str	w1, [x29, #272]
    55ac:	8b20c040 	add	x0, x2, w0, sxtw
    55b0:	17fffbd1 	b	44f4 <_vfprintf_r+0x164c>
    55b4:	b94113a0 	ldr	w0, [x29, #272]
    55b8:	11002001 	add	w1, w0, #0x8
    55bc:	7100003f 	cmp	w1, #0x0
    55c0:	5400012d 	b.le	55e4 <_vfprintf_r+0x273c>
    55c4:	b90113a1 	str	w1, [x29, #272]
    55c8:	17fffc34 	b	4698 <_vfprintf_r+0x17f0>
    55cc:	b94113a0 	ldr	w0, [x29, #272]
    55d0:	11002001 	add	w1, w0, #0x8
    55d4:	7100003f 	cmp	w1, #0x0
    55d8:	5400010d 	b.le	55f8 <_vfprintf_r+0x2750>
    55dc:	b90113a1 	str	w1, [x29, #272]
    55e0:	17fffc48 	b	4700 <_vfprintf_r+0x1858>
    55e4:	b94113a0 	ldr	w0, [x29, #272]
    55e8:	f9405fa2 	ldr	x2, [x29, #184]
    55ec:	b90113a1 	str	w1, [x29, #272]
    55f0:	8b20c040 	add	x0, x2, w0, sxtw
    55f4:	17fffc2d 	b	46a8 <_vfprintf_r+0x1800>
    55f8:	b94113a0 	ldr	w0, [x29, #272]
    55fc:	f9405fa2 	ldr	x2, [x29, #184]
    5600:	b90113a1 	str	w1, [x29, #272]
    5604:	8b20c040 	add	x0, x2, w0, sxtw
    5608:	17fffc42 	b	4710 <_vfprintf_r+0x1868>
    560c:	b94113a0 	ldr	w0, [x29, #272]
    5610:	11002001 	add	w1, w0, #0x8
    5614:	7100003f 	cmp	w1, #0x0
    5618:	5400012d 	b.le	563c <_vfprintf_r+0x2794>
    561c:	b90113a1 	str	w1, [x29, #272]
    5620:	17fffc40 	b	4720 <_vfprintf_r+0x1878>
    5624:	b94113a0 	ldr	w0, [x29, #272]
    5628:	11002001 	add	w1, w0, #0x8
    562c:	7100003f 	cmp	w1, #0x0
    5630:	5400012d 	b.le	5654 <_vfprintf_r+0x27ac>
    5634:	b90113a1 	str	w1, [x29, #272]
    5638:	17fffb19 	b	429c <_vfprintf_r+0x13f4>
    563c:	b94113a0 	ldr	w0, [x29, #272]
    5640:	f9405fa2 	ldr	x2, [x29, #184]
    5644:	b90113a1 	str	w1, [x29, #272]
    5648:	8b20c040 	add	x0, x2, w0, sxtw
    564c:	b9800014 	ldrsw	x20, [x0]
    5650:	17fff7e7 	b	35ec <_vfprintf_r+0x744>
    5654:	b94113a0 	ldr	w0, [x29, #272]
    5658:	f9405fa2 	ldr	x2, [x29, #184]
    565c:	b90113a1 	str	w1, [x29, #272]
    5660:	8b20c040 	add	x0, x2, w0, sxtw
    5664:	39800014 	ldrsb	x20, [x0]
    5668:	17fff7e1 	b	35ec <_vfprintf_r+0x744>
    566c:	b94113a0 	ldr	w0, [x29, #272]
    5670:	11002001 	add	w1, w0, #0x8
    5674:	7100003f 	cmp	w1, #0x0
    5678:	5400012d 	b.le	569c <_vfprintf_r+0x27f4>
    567c:	b90113a1 	str	w1, [x29, #272]
    5680:	17fffbd5 	b	45d4 <_vfprintf_r+0x172c>
    5684:	b94113a0 	ldr	w0, [x29, #272]
    5688:	11002001 	add	w1, w0, #0x8
    568c:	7100003f 	cmp	w1, #0x0
    5690:	5400010d 	b.le	56b0 <_vfprintf_r+0x2808>
    5694:	b90113a1 	str	w1, [x29, #272]
    5698:	17fffb9d 	b	450c <_vfprintf_r+0x1664>
    569c:	b94113a0 	ldr	w0, [x29, #272]
    56a0:	f9405fa2 	ldr	x2, [x29, #184]
    56a4:	b90113a1 	str	w1, [x29, #272]
    56a8:	8b20c040 	add	x0, x2, w0, sxtw
    56ac:	17fffbce 	b	45e4 <_vfprintf_r+0x173c>
    56b0:	b94113a0 	ldr	w0, [x29, #272]
    56b4:	f9405fa2 	ldr	x2, [x29, #184]
    56b8:	b90113a1 	str	w1, [x29, #272]
    56bc:	8b20c040 	add	x0, x2, w0, sxtw
    56c0:	17fffb97 	b	451c <_vfprintf_r+0x1674>
    56c4:	b94113a0 	ldr	w0, [x29, #272]
    56c8:	11002001 	add	w1, w0, #0x8
    56cc:	7100003f 	cmp	w1, #0x0
    56d0:	5400010d 	b.le	56f0 <_vfprintf_r+0x2848>
    56d4:	b90113a1 	str	w1, [x29, #272]
    56d8:	17fffb63 	b	4464 <_vfprintf_r+0x15bc>
    56dc:	b94113a0 	ldr	w0, [x29, #272]
    56e0:	f9405fa2 	ldr	x2, [x29, #184]
    56e4:	b90113a1 	str	w1, [x29, #272]
    56e8:	8b20c040 	add	x0, x2, w0, sxtw
    56ec:	17ffff91 	b	5530 <_vfprintf_r+0x2688>
    56f0:	b94113a0 	ldr	w0, [x29, #272]
    56f4:	f9405fa2 	ldr	x2, [x29, #184]
    56f8:	b90113a1 	str	w1, [x29, #272]
    56fc:	8b20c040 	add	x0, x2, w0, sxtw
    5700:	17fffb5d 	b	4474 <_vfprintf_r+0x15cc>
    5704:	b94113a0 	ldr	w0, [x29, #272]
    5708:	f9405fa2 	ldr	x2, [x29, #184]
    570c:	b90113a1 	str	w1, [x29, #272]
    5710:	8b20c040 	add	x0, x2, w0, sxtw
    5714:	17fff7eb 	b	36c0 <_vfprintf_r+0x818>
    5718:	b94113a0 	ldr	w0, [x29, #272]
    571c:	f9405fa2 	ldr	x2, [x29, #184]
    5720:	b90113a1 	str	w1, [x29, #272]
    5724:	8b20c040 	add	x0, x2, w0, sxtw
    5728:	79400014 	ldrh	w20, [x0]
    572c:	17fffbea 	b	46d4 <_vfprintf_r+0x182c>
    5730:	b94113a0 	ldr	w0, [x29, #272]
    5734:	f9405fa2 	ldr	x2, [x29, #184]
    5738:	b90113a1 	str	w1, [x29, #272]
    573c:	8b20c040 	add	x0, x2, w0, sxtw
    5740:	79400014 	ldrh	w20, [x0]
    5744:	17fffb56 	b	449c <_vfprintf_r+0x15f4>

0000000000005748 <vfprintf>:
    5748:	aa0203e4 	mov	x4, x2
    574c:	a9bd7bfd 	stp	x29, x30, [sp, #-48]!
    5750:	90000043 	adrp	x3, d000 <__trunctfdf2+0x290>
    5754:	aa0103e2 	mov	x2, x1
    5758:	910003fd 	mov	x29, sp
    575c:	aa0003e1 	mov	x1, x0
    5760:	a9401c86 	ldp	x6, x7, [x4]
    5764:	f943a860 	ldr	x0, [x3, #1872]
    5768:	910043a3 	add	x3, x29, #0x10
    576c:	a9411484 	ldp	x4, x5, [x4, #16]
    5770:	a9011fa6 	stp	x6, x7, [x29, #16]
    5774:	a90217a4 	stp	x4, x5, [x29, #32]
    5778:	97fff5cc 	bl	2ea8 <_vfprintf_r>
    577c:	a8c37bfd 	ldp	x29, x30, [sp], #48
    5780:	d65f03c0 	ret
    5784:	d503201f 	nop

0000000000005788 <__sbprintf>:
    5788:	d11403ff 	sub	sp, sp, #0x500
    578c:	52808004 	mov	w4, #0x400                 	// #1024
    5790:	a9007bfd 	stp	x29, x30, [sp]
    5794:	910003fd 	mov	x29, sp
    5798:	910403a5 	add	x5, x29, #0x100
    579c:	a940346c 	ldp	x12, x13, [x3]
    57a0:	a90153f3 	stp	x19, x20, [sp, #16]
    57a4:	aa0103f3 	mov	x19, x1
    57a8:	79402021 	ldrh	w1, [x1, #16]
    57ac:	a9411c66 	ldp	x6, x7, [x3, #16]
    57b0:	121e7821 	and	w1, w1, #0xfffffffd
    57b4:	7940266b 	ldrh	w11, [x19, #18]
    57b8:	9100c3a3 	add	x3, x29, #0x30
    57bc:	b940ae68 	ldr	w8, [x19, #172]
    57c0:	f9401a6a 	ldr	x10, [x19, #48]
    57c4:	f9402269 	ldr	x9, [x19, #64]
    57c8:	b900ffa8 	str	w8, [x29, #252]
    57cc:	f90013f5 	str	x21, [sp, #32]
    57d0:	aa0003f5 	mov	x21, x0
    57d4:	a90337ac 	stp	x12, x13, [x29, #48]
    57d8:	a9041fa6 	stp	x6, x7, [x29, #64]
    57dc:	f9002ba5 	str	x5, [x29, #80]
    57e0:	b9005fa4 	str	w4, [x29, #92]
    57e4:	7900c3a1 	strh	w1, [x29, #96]
    57e8:	910143a1 	add	x1, x29, #0x50
    57ec:	7900c7ab 	strh	w11, [x29, #98]
    57f0:	f90037a5 	str	x5, [x29, #104]
    57f4:	b90073a4 	str	w4, [x29, #112]
    57f8:	b9007bbf 	str	wzr, [x29, #120]
    57fc:	f90043aa 	str	x10, [x29, #128]
    5800:	f9004ba9 	str	x9, [x29, #144]
    5804:	97fff5a9 	bl	2ea8 <_vfprintf_r>
    5808:	2a0003f4 	mov	w20, w0
    580c:	37f800c0 	tbnz	w0, #31, 5824 <__sbprintf+0x9c>
    5810:	910143a1 	add	x1, x29, #0x50
    5814:	aa1503e0 	mov	x0, x21
    5818:	94000668 	bl	71b8 <_fflush_r>
    581c:	7100001f 	cmp	w0, #0x0
    5820:	5a9f0294 	csinv	w20, w20, wzr, eq  // eq = none
    5824:	7940c3a0 	ldrh	w0, [x29, #96]
    5828:	36300080 	tbz	w0, #6, 5838 <__sbprintf+0xb0>
    582c:	79402260 	ldrh	w0, [x19, #16]
    5830:	321a0000 	orr	w0, w0, #0x40
    5834:	79002260 	strh	w0, [x19, #16]
    5838:	2a1403e0 	mov	w0, w20
    583c:	f94013f5 	ldr	x21, [sp, #32]
    5840:	a9407bfd 	ldp	x29, x30, [sp]
    5844:	a94153f3 	ldp	x19, x20, [sp, #16]
    5848:	911403ff 	add	sp, sp, #0x500
    584c:	d65f03c0 	ret

0000000000005850 <__swsetup_r>:
    5850:	a9be7bfd 	stp	x29, x30, [sp, #-32]!
    5854:	90000042 	adrp	x2, d000 <__trunctfdf2+0x290>
    5858:	910003fd 	mov	x29, sp
    585c:	a90153f3 	stp	x19, x20, [sp, #16]
    5860:	aa0003f4 	mov	x20, x0
    5864:	f943a840 	ldr	x0, [x2, #1872]
    5868:	aa0103f3 	mov	x19, x1
    586c:	b4000060 	cbz	x0, 5878 <__swsetup_r+0x28>
    5870:	b9405001 	ldr	w1, [x0, #80]
    5874:	340005e1 	cbz	w1, 5930 <__swsetup_r+0xe0>
    5878:	79c02262 	ldrsh	w2, [x19, #16]
    587c:	12003c40 	and	w0, w2, #0xffff
    5880:	361801a0 	tbz	w0, #3, 58b4 <__swsetup_r+0x64>
    5884:	f9400e61 	ldr	x1, [x19, #24]
    5888:	b40003e1 	cbz	x1, 5904 <__swsetup_r+0xb4>
    588c:	36000240 	tbz	w0, #0, 58d4 <__swsetup_r+0x84>
    5890:	b9402260 	ldr	w0, [x19, #32]
    5894:	b9000e7f 	str	wzr, [x19, #12]
    5898:	4b0003e0 	neg	w0, w0
    589c:	b9002a60 	str	w0, [x19, #40]
    58a0:	52800000 	mov	w0, #0x0                   	// #0
    58a4:	b4000241 	cbz	x1, 58ec <__swsetup_r+0x9c>
    58a8:	a94153f3 	ldp	x19, x20, [sp, #16]
    58ac:	a8c27bfd 	ldp	x29, x30, [sp], #32
    58b0:	d65f03c0 	ret
    58b4:	36200600 	tbz	w0, #4, 5974 <__swsetup_r+0x124>
    58b8:	37100400 	tbnz	w0, #2, 5938 <__swsetup_r+0xe8>
    58bc:	f9400e61 	ldr	x1, [x19, #24]
    58c0:	321d0040 	orr	w0, w2, #0x8
    58c4:	79002260 	strh	w0, [x19, #16]
    58c8:	12003c00 	and	w0, w0, #0xffff
    58cc:	b5fffe01 	cbnz	x1, 588c <__swsetup_r+0x3c>
    58d0:	1400000d 	b	5904 <__swsetup_r+0xb4>
    58d4:	52800002 	mov	w2, #0x0                   	// #0
    58d8:	37080040 	tbnz	w0, #1, 58e0 <__swsetup_r+0x90>
    58dc:	b9402262 	ldr	w2, [x19, #32]
    58e0:	b9000e62 	str	w2, [x19, #12]
    58e4:	52800000 	mov	w0, #0x0                   	// #0
    58e8:	b5fffe01 	cbnz	x1, 58a8 <__swsetup_r+0x58>
    58ec:	79c02261 	ldrsh	w1, [x19, #16]
    58f0:	363ffdc1 	tbz	w1, #7, 58a8 <__swsetup_r+0x58>
    58f4:	321a0021 	orr	w1, w1, #0x40
    58f8:	12800000 	mov	w0, #0xffffffff            	// #-1
    58fc:	79002261 	strh	w1, [x19, #16]
    5900:	17ffffea 	b	58a8 <__swsetup_r+0x58>
    5904:	52805002 	mov	w2, #0x280                 	// #640
    5908:	0a020002 	and	w2, w0, w2
    590c:	7108005f 	cmp	w2, #0x200
    5910:	54fffbe0 	b.eq	588c <__swsetup_r+0x3c>  // b.none
    5914:	aa1303e1 	mov	x1, x19
    5918:	aa1403e0 	mov	x0, x20
    591c:	940008df 	bl	7c98 <__smakebuf_r>
    5920:	79402260 	ldrh	w0, [x19, #16]
    5924:	f9400e61 	ldr	x1, [x19, #24]
    5928:	3607fd60 	tbz	w0, #0, 58d4 <__swsetup_r+0x84>
    592c:	17ffffd9 	b	5890 <__swsetup_r+0x40>
    5930:	940006f6 	bl	7508 <__sinit>
    5934:	17ffffd1 	b	5878 <__swsetup_r+0x28>
    5938:	f9402e61 	ldr	x1, [x19, #88]
    593c:	b4000101 	cbz	x1, 595c <__swsetup_r+0x10c>
    5940:	9101d260 	add	x0, x19, #0x74
    5944:	eb00003f 	cmp	x1, x0
    5948:	54000080 	b.eq	5958 <__swsetup_r+0x108>  // b.none
    594c:	aa1403e0 	mov	x0, x20
    5950:	9400074a 	bl	7678 <_free_r>
    5954:	79c02262 	ldrsh	w2, [x19, #16]
    5958:	f9002e7f 	str	xzr, [x19, #88]
    595c:	f9400e61 	ldr	x1, [x19, #24]
    5960:	12800480 	mov	w0, #0xffffffdb            	// #-37
    5964:	f9000261 	str	x1, [x19]
    5968:	0a000042 	and	w2, w2, w0
    596c:	b9000a7f 	str	wzr, [x19, #8]
    5970:	17ffffd4 	b	58c0 <__swsetup_r+0x70>
    5974:	52800120 	mov	w0, #0x9                   	// #9
    5978:	b9000280 	str	w0, [x20]
    597c:	321a0042 	orr	w2, w2, #0x40
    5980:	12800000 	mov	w0, #0xffffffff            	// #-1
    5984:	79002262 	strh	w2, [x19, #16]
    5988:	17ffffc8 	b	58a8 <__swsetup_r+0x58>
    598c:	00000000 	.inst	0x00000000 ; undefined

0000000000005990 <__register_exitproc>:
    5990:	a9bc7bfd 	stp	x29, x30, [sp, #-64]!
    5994:	90000044 	adrp	x4, d000 <__trunctfdf2+0x290>
    5998:	910003fd 	mov	x29, sp
    599c:	a90153f3 	stp	x19, x20, [sp, #16]
    59a0:	2a0003f4 	mov	w20, w0
    59a4:	f9412093 	ldr	x19, [x4, #576]
    59a8:	a9025bf5 	stp	x21, x22, [sp, #32]
    59ac:	aa0103f5 	mov	x21, x1
    59b0:	aa0303f6 	mov	x22, x3
    59b4:	f940fe64 	ldr	x4, [x19, #504]
    59b8:	f9001bf7 	str	x23, [sp, #48]
    59bc:	aa0203f7 	mov	x23, x2
    59c0:	b4000564 	cbz	x4, 5a6c <__register_exitproc+0xdc>
    59c4:	b9400880 	ldr	w0, [x4, #8]
    59c8:	11000401 	add	w1, w0, #0x1
    59cc:	71007c1f 	cmp	w0, #0x1f
    59d0:	540001cd 	b.le	5a08 <__register_exitproc+0x78>
    59d4:	58000560 	ldr	x0, 5a80 <__register_exitproc+0xf0>
    59d8:	b4000500 	cbz	x0, 5a78 <__register_exitproc+0xe8>
    59dc:	d2806300 	mov	x0, #0x318                 	// #792
    59e0:	d503201f 	nop
    59e4:	aa0003e4 	mov	x4, x0
    59e8:	b4000480 	cbz	x0, 5a78 <__register_exitproc+0xe8>
    59ec:	f940fe60 	ldr	x0, [x19, #504]
    59f0:	52800021 	mov	w1, #0x1                   	// #1
    59f4:	f9000080 	str	x0, [x4]
    59f8:	b900089f 	str	wzr, [x4, #8]
    59fc:	52800000 	mov	w0, #0x0                   	// #0
    5a00:	f900fe64 	str	x4, [x19, #504]
    5a04:	f901889f 	str	xzr, [x4, #784]
    5a08:	93407c05 	sxtw	x5, w0
    5a0c:	35000154 	cbnz	w20, 5a34 <__register_exitproc+0xa4>
    5a10:	910008a5 	add	x5, x5, #0x2
    5a14:	b9000881 	str	w1, [x4, #8]
    5a18:	52800000 	mov	w0, #0x0                   	// #0
    5a1c:	f8257895 	str	x21, [x4, x5, lsl #3]
    5a20:	a94153f3 	ldp	x19, x20, [sp, #16]
    5a24:	a9425bf5 	ldp	x21, x22, [sp, #32]
    5a28:	f9401bf7 	ldr	x23, [sp, #48]
    5a2c:	a8c47bfd 	ldp	x29, x30, [sp], #64
    5a30:	d65f03c0 	ret
    5a34:	8b050c83 	add	x3, x4, x5, lsl #3
    5a38:	52800026 	mov	w6, #0x1                   	// #1
    5a3c:	1ac020c0 	lsl	w0, w6, w0
    5a40:	71000a9f 	cmp	w20, #0x2
    5a44:	f9008877 	str	x23, [x3, #272]
    5a48:	b9431082 	ldr	w2, [x4, #784]
    5a4c:	2a000042 	orr	w2, w2, w0
    5a50:	b9031082 	str	w2, [x4, #784]
    5a54:	f9010876 	str	x22, [x3, #528]
    5a58:	54fffdc1 	b.ne	5a10 <__register_exitproc+0x80>  // b.any
    5a5c:	b9431482 	ldr	w2, [x4, #788]
    5a60:	2a000040 	orr	w0, w2, w0
    5a64:	b9031480 	str	w0, [x4, #788]
    5a68:	17ffffea 	b	5a10 <__register_exitproc+0x80>
    5a6c:	91080264 	add	x4, x19, #0x200
    5a70:	f900fe64 	str	x4, [x19, #504]
    5a74:	17ffffd4 	b	59c4 <__register_exitproc+0x34>
    5a78:	12800000 	mov	w0, #0xffffffff            	// #-1
    5a7c:	17ffffe9 	b	5a20 <__register_exitproc+0x90>
	...

0000000000005a88 <__call_exitprocs>:
    5a88:	a9b97bfd 	stp	x29, x30, [sp, #-112]!
    5a8c:	90000042 	adrp	x2, d000 <__trunctfdf2+0x290>
    5a90:	910003fd 	mov	x29, sp
    5a94:	a90363f7 	stp	x23, x24, [sp, #48]
    5a98:	f9412057 	ldr	x23, [x2, #576]
    5a9c:	a9046bf9 	stp	x25, x26, [sp, #64]
    5aa0:	580009d9 	ldr	x25, 5bd8 <__call_exitprocs+0x150>
    5aa4:	9107e2f8 	add	x24, x23, #0x1f8
    5aa8:	a90573fb 	stp	x27, x28, [sp, #80]
    5aac:	aa0103fb 	mov	x27, x1
    5ab0:	a90153f3 	stp	x19, x20, [sp, #16]
    5ab4:	a9025bf5 	stp	x21, x22, [sp, #32]
    5ab8:	52800036 	mov	w22, #0x1                   	// #1
    5abc:	b9006fa0 	str	w0, [x29, #108]
    5ac0:	f940fef5 	ldr	x21, [x23, #504]
    5ac4:	b4000335 	cbz	x21, 5b28 <__call_exitprocs+0xa0>
    5ac8:	aa1803fa 	mov	x26, x24
    5acc:	b9400ab3 	ldr	w19, [x21, #8]
    5ad0:	71000673 	subs	w19, w19, #0x1
    5ad4:	54000164 	b.mi	5b00 <__call_exitprocs+0x78>  // b.first
    5ad8:	8b33ceb4 	add	x20, x21, w19, sxtw #3
    5adc:	d503201f 	nop
    5ae0:	b400033b 	cbz	x27, 5b44 <__call_exitprocs+0xbc>
    5ae4:	f9410a80 	ldr	x0, [x20, #528]
    5ae8:	eb1b001f 	cmp	x0, x27
    5aec:	540002c0 	b.eq	5b44 <__call_exitprocs+0xbc>  // b.none
    5af0:	51000673 	sub	w19, w19, #0x1
    5af4:	d1002294 	sub	x20, x20, #0x8
    5af8:	3100067f 	cmn	w19, #0x1
    5afc:	54ffff21 	b.ne	5ae0 <__call_exitprocs+0x58>  // b.any
    5b00:	b4000159 	cbz	x25, 5b28 <__call_exitprocs+0xa0>
    5b04:	b9400aa1 	ldr	w1, [x21, #8]
    5b08:	f94002a0 	ldr	x0, [x21]
    5b0c:	350005a1 	cbnz	w1, 5bc0 <__call_exitprocs+0x138>
    5b10:	b4000580 	cbz	x0, 5bc0 <__call_exitprocs+0x138>
    5b14:	f9000340 	str	x0, [x26]
    5b18:	aa1503e0 	mov	x0, x21
    5b1c:	d503201f 	nop
    5b20:	f9400355 	ldr	x21, [x26]
    5b24:	b5fffd55 	cbnz	x21, 5acc <__call_exitprocs+0x44>
    5b28:	a94153f3 	ldp	x19, x20, [sp, #16]
    5b2c:	a9425bf5 	ldp	x21, x22, [sp, #32]
    5b30:	a94363f7 	ldp	x23, x24, [sp, #48]
    5b34:	a9446bf9 	ldp	x25, x26, [sp, #64]
    5b38:	a94573fb 	ldp	x27, x28, [sp, #80]
    5b3c:	a8c77bfd 	ldp	x29, x30, [sp], #112
    5b40:	d65f03c0 	ret
    5b44:	b9400aa0 	ldr	w0, [x21, #8]
    5b48:	f9400a82 	ldr	x2, [x20, #16]
    5b4c:	51000400 	sub	w0, w0, #0x1
    5b50:	6b13001f 	cmp	w0, w19
    5b54:	54000220 	b.eq	5b98 <__call_exitprocs+0x110>  // b.none
    5b58:	f9000a9f 	str	xzr, [x20, #16]
    5b5c:	b4fffca2 	cbz	x2, 5af0 <__call_exitprocs+0x68>
    5b60:	910442a0 	add	x0, x21, #0x110
    5b64:	b9420001 	ldr	w1, [x0, #512]
    5b68:	1ad322c3 	lsl	w3, w22, w19
    5b6c:	b9400abc 	ldr	w28, [x21, #8]
    5b70:	6a01007f 	tst	w3, w1
    5b74:	54000161 	b.ne	5ba0 <__call_exitprocs+0x118>  // b.any
    5b78:	d63f0040 	blr	x2
    5b7c:	b9400aa0 	ldr	w0, [x21, #8]
    5b80:	6b1c001f 	cmp	w0, w28
    5b84:	54fff9e1 	b.ne	5ac0 <__call_exitprocs+0x38>  // b.any
    5b88:	f9400340 	ldr	x0, [x26]
    5b8c:	eb15001f 	cmp	x0, x21
    5b90:	54fffb00 	b.eq	5af0 <__call_exitprocs+0x68>  // b.none
    5b94:	17ffffcb 	b	5ac0 <__call_exitprocs+0x38>
    5b98:	b9000ab3 	str	w19, [x21, #8]
    5b9c:	17fffff0 	b	5b5c <__call_exitprocs+0xd4>
    5ba0:	b9420401 	ldr	w1, [x0, #516]
    5ba4:	f9408a80 	ldr	x0, [x20, #272]
    5ba8:	6a01007f 	tst	w3, w1
    5bac:	54000121 	b.ne	5bd0 <__call_exitprocs+0x148>  // b.any
    5bb0:	aa0003e1 	mov	x1, x0
    5bb4:	b9406fa0 	ldr	w0, [x29, #108]
    5bb8:	d63f0040 	blr	x2
    5bbc:	17fffff0 	b	5b7c <__call_exitprocs+0xf4>
    5bc0:	aa1503fa 	mov	x26, x21
    5bc4:	aa0003f5 	mov	x21, x0
    5bc8:	b5fff835 	cbnz	x21, 5acc <__call_exitprocs+0x44>
    5bcc:	17ffffd7 	b	5b28 <__call_exitprocs+0xa0>
    5bd0:	d63f0040 	blr	x2
    5bd4:	17ffffea 	b	5b7c <__call_exitprocs+0xf4>
	...

0000000000005be0 <quorem>:
    5be0:	a9bc7bfd 	stp	x29, x30, [sp, #-64]!
    5be4:	910003fd 	mov	x29, sp
    5be8:	b9401402 	ldr	w2, [x0, #20]
    5bec:	f90013f5 	str	x21, [sp, #32]
    5bf0:	b9401435 	ldr	w21, [x1, #20]
    5bf4:	6b15005f 	cmp	w2, w21
    5bf8:	54000c2b 	b.lt	5d7c <quorem+0x19c>  // b.tstop
    5bfc:	510006b5 	sub	w21, w21, #0x1
    5c00:	a90153b3 	stp	x19, x20, [x29, #16]
    5c04:	91006034 	add	x20, x1, #0x18
    5c08:	a902dfb6 	stp	x22, x23, [x29, #40]
    5c0c:	93407eaa 	sxtw	x10, w21
    5c10:	91006016 	add	x22, x0, #0x18
    5c14:	d37ef543 	lsl	x3, x10, #2
    5c18:	b86a7a82 	ldr	w2, [x20, x10, lsl #2]
    5c1c:	8b030297 	add	x23, x20, x3
    5c20:	b86a7ad3 	ldr	w19, [x22, x10, lsl #2]
    5c24:	8b0302cb 	add	x11, x22, x3
    5c28:	11000442 	add	w2, w2, #0x1
    5c2c:	f9001fb8 	str	x24, [x29, #56]
    5c30:	1ac20a73 	udiv	w19, w19, w2
    5c34:	340004f3 	cbz	w19, 5cd0 <quorem+0xf0>
    5c38:	aa1403e9 	mov	x9, x20
    5c3c:	aa1603e8 	mov	x8, x22
    5c40:	52800003 	mov	w3, #0x0                   	// #0
    5c44:	52800006 	mov	w6, #0x0                   	// #0
    5c48:	b8404524 	ldr	w4, [x9], #4
    5c4c:	b9400102 	ldr	w2, [x8]
    5c50:	12003c85 	and	w5, w4, #0xffff
    5c54:	eb0902ff 	cmp	x23, x9
    5c58:	53107c84 	lsr	w4, w4, #16
    5c5c:	53107c47 	lsr	w7, w2, #16
    5c60:	1b130ca5 	madd	w5, w5, w19, w3
    5c64:	53107ca3 	lsr	w3, w5, #16
    5c68:	4b2520c5 	sub	w5, w6, w5, uxth
    5c6c:	0b2220a2 	add	w2, w5, w2, uxth
    5c70:	12003c46 	and	w6, w2, #0xffff
    5c74:	1b130c83 	madd	w3, w4, w19, w3
    5c78:	4b2320e4 	sub	w4, w7, w3, uxth
    5c7c:	53107c63 	lsr	w3, w3, #16
    5c80:	0b824082 	add	w2, w4, w2, asr #16
    5c84:	2a0240c4 	orr	w4, w6, w2, lsl #16
    5c88:	b8004504 	str	w4, [x8], #4
    5c8c:	13107c46 	asr	w6, w2, #16
    5c90:	54fffdc2 	b.cs	5c48 <quorem+0x68>  // b.hs, b.nlast
    5c94:	b86a7ac2 	ldr	w2, [x22, x10, lsl #2]
    5c98:	350001c2 	cbnz	w2, 5cd0 <quorem+0xf0>
    5c9c:	d1001162 	sub	x2, x11, #0x4
    5ca0:	eb0202df 	cmp	x22, x2
    5ca4:	54000142 	b.cs	5ccc <quorem+0xec>  // b.hs, b.nlast
    5ca8:	b85fc163 	ldur	w3, [x11, #-4]
    5cac:	34000083 	cbz	w3, 5cbc <quorem+0xdc>
    5cb0:	14000007 	b	5ccc <quorem+0xec>
    5cb4:	b9400043 	ldr	w3, [x2]
    5cb8:	350000a3 	cbnz	w3, 5ccc <quorem+0xec>
    5cbc:	d1001042 	sub	x2, x2, #0x4
    5cc0:	510006b5 	sub	w21, w21, #0x1
    5cc4:	eb0202df 	cmp	x22, x2
    5cc8:	54ffff63 	b.cc	5cb4 <quorem+0xd4>  // b.lo, b.ul, b.last
    5ccc:	b9001415 	str	w21, [x0, #20]
    5cd0:	aa0003f8 	mov	x24, x0
    5cd4:	94000ce9 	bl	9078 <__mcmp>
    5cd8:	37f80440 	tbnz	w0, #31, 5d60 <quorem+0x180>
    5cdc:	11000673 	add	w19, w19, #0x1
    5ce0:	aa1603e4 	mov	x4, x22
    5ce4:	52800003 	mov	w3, #0x0                   	// #0
    5ce8:	b8404682 	ldr	w2, [x20], #4
    5cec:	b9400081 	ldr	w1, [x4]
    5cf0:	eb1402ff 	cmp	x23, x20
    5cf4:	4b222063 	sub	w3, w3, w2, uxth
    5cf8:	53107c25 	lsr	w5, w1, #16
    5cfc:	0b212061 	add	w1, w3, w1, uxth
    5d00:	4b4240a2 	sub	w2, w5, w2, lsr #16
    5d04:	12003c23 	and	w3, w1, #0xffff
    5d08:	0b814041 	add	w1, w2, w1, asr #16
    5d0c:	2a014062 	orr	w2, w3, w1, lsl #16
    5d10:	b8004482 	str	w2, [x4], #4
    5d14:	13107c23 	asr	w3, w1, #16
    5d18:	54fffe82 	b.cs	5ce8 <quorem+0x108>  // b.hs, b.nlast
    5d1c:	93407ea0 	sxtw	x0, w21
    5d20:	8b000ac1 	add	x1, x22, x0, lsl #2
    5d24:	b8607ac0 	ldr	w0, [x22, x0, lsl #2]
    5d28:	350001c0 	cbnz	w0, 5d60 <quorem+0x180>
    5d2c:	d1001020 	sub	x0, x1, #0x4
    5d30:	eb0002df 	cmp	x22, x0
    5d34:	54000142 	b.cs	5d5c <quorem+0x17c>  // b.hs, b.nlast
    5d38:	b85fc021 	ldur	w1, [x1, #-4]
    5d3c:	34000081 	cbz	w1, 5d4c <quorem+0x16c>
    5d40:	14000007 	b	5d5c <quorem+0x17c>
    5d44:	b9400001 	ldr	w1, [x0]
    5d48:	350000a1 	cbnz	w1, 5d5c <quorem+0x17c>
    5d4c:	d1001000 	sub	x0, x0, #0x4
    5d50:	510006b5 	sub	w21, w21, #0x1
    5d54:	eb0002df 	cmp	x22, x0
    5d58:	54ffff63 	b.cc	5d44 <quorem+0x164>  // b.lo, b.ul, b.last
    5d5c:	b9001715 	str	w21, [x24, #20]
    5d60:	2a1303e0 	mov	w0, w19
    5d64:	f9401fb8 	ldr	x24, [x29, #56]
    5d68:	a94153b3 	ldp	x19, x20, [x29, #16]
    5d6c:	a942dfb6 	ldp	x22, x23, [x29, #40]
    5d70:	f94013f5 	ldr	x21, [sp, #32]
    5d74:	a8c47bfd 	ldp	x29, x30, [sp], #64
    5d78:	d65f03c0 	ret
    5d7c:	52800000 	mov	w0, #0x0                   	// #0
    5d80:	f94013f5 	ldr	x21, [sp, #32]
    5d84:	a8c47bfd 	ldp	x29, x30, [sp], #64
    5d88:	d65f03c0 	ret
    5d8c:	d503201f 	nop

0000000000005d90 <_dtoa_r>:
    5d90:	a9b47bfd 	stp	x29, x30, [sp, #-192]!
    5d94:	910003fd 	mov	x29, sp
    5d98:	a90153f3 	stp	x19, x20, [sp, #16]
    5d9c:	aa0003f3 	mov	x19, x0
    5da0:	a9025bf5 	stp	x21, x22, [sp, #32]
    5da4:	aa0503f4 	mov	x20, x5
    5da8:	b900aba2 	str	w2, [x29, #168]
    5dac:	2a0103f5 	mov	w21, w1
    5db0:	f9403002 	ldr	x2, [x0, #96]
    5db4:	f9001bf7 	str	x23, [sp, #48]
    5db8:	aa0403f7 	mov	x23, x4
    5dbc:	a9046bf9 	stp	x25, x26, [sp, #64]
    5dc0:	aa0303f9 	mov	x25, x3
    5dc4:	fd0033e8 	str	d8, [sp, #96]
    5dc8:	9e66001a 	fmov	x26, d0
    5dcc:	1e604008 	fmov	d8, d0
    5dd0:	b4000102 	cbz	x2, 5df0 <_dtoa_r+0x60>
    5dd4:	b9406804 	ldr	w4, [x0, #104]
    5dd8:	52800023 	mov	w3, #0x1                   	// #1
    5ddc:	aa0203e1 	mov	x1, x2
    5de0:	1ac42063 	lsl	w3, w3, w4
    5de4:	29010c44 	stp	w4, w3, [x2, #8]
    5de8:	94000ac0 	bl	88e8 <_Bfree>
    5dec:	f900327f 	str	xzr, [x19, #96]
    5df0:	9e660100 	fmov	x0, d8
    5df4:	d360fc00 	lsr	x0, x0, #32
    5df8:	2a0003f6 	mov	w22, w0
    5dfc:	37f80e40 	tbnz	w0, #31, 5fc4 <_dtoa_r+0x234>
    5e00:	b90002ff 	str	wzr, [x23]
    5e04:	120c2ac1 	and	w1, w22, #0x7ff00000
    5e08:	52affe00 	mov	w0, #0x7ff00000            	// #2146435072
    5e0c:	6b00003f 	cmp	w1, w0
    5e10:	54000ec0 	b.eq	5fe8 <_dtoa_r+0x258>  // b.none
    5e14:	1e602108 	fcmp	d8, #0.0
    5e18:	54000221 	b.ne	5e5c <_dtoa_r+0xcc>  // b.any
    5e1c:	52800020 	mov	w0, #0x1                   	// #1
    5e20:	b9000320 	str	w0, [x25]
    5e24:	b40014d4 	cbz	x20, 60bc <_dtoa_r+0x32c>
    5e28:	90000040 	adrp	x0, d000 <__trunctfdf2+0x290>
    5e2c:	90000055 	adrp	x21, d000 <__trunctfdf2+0x290>
    5e30:	91160400 	add	x0, x0, #0x581
    5e34:	911602b5 	add	x21, x21, #0x580
    5e38:	f9000280 	str	x0, [x20]
    5e3c:	aa1503e0 	mov	x0, x21
    5e40:	f9401bf7 	ldr	x23, [sp, #48]
    5e44:	a94153f3 	ldp	x19, x20, [sp, #16]
    5e48:	a9425bf5 	ldp	x21, x22, [sp, #32]
    5e4c:	a9446bf9 	ldp	x25, x26, [sp, #64]
    5e50:	fd4033e8 	ldr	d8, [sp, #96]
    5e54:	a8cc7bfd 	ldp	x29, x30, [sp], #192
    5e58:	d65f03c0 	ret
    5e5c:	1e604100 	fmov	d0, d8
    5e60:	9102f3a1 	add	x1, x29, #0xbc
    5e64:	a90573bb 	stp	x27, x28, [x29, #80]
    5e68:	9102e3a2 	add	x2, x29, #0xb8
    5e6c:	aa1303e0 	mov	x0, x19
    5e70:	f9001fb8 	str	x24, [x29, #56]
    5e74:	94000d5d 	bl	93e8 <__d2b>
    5e78:	aa0003f7 	mov	x23, x0
    5e7c:	53147ec1 	lsr	w1, w22, #20
    5e80:	35000d61 	cbnz	w1, 602c <_dtoa_r+0x29c>
    5e84:	295707a2 	ldp	w2, w1, [x29, #184]
    5e88:	0b010041 	add	w1, w2, w1
    5e8c:	1110c823 	add	w3, w1, #0x432
    5e90:	7100807f 	cmp	w3, #0x20
    5e94:	54002f4d 	b.le	647c <_dtoa_r+0x6ec>
    5e98:	52800804 	mov	w4, #0x40                  	// #64
    5e9c:	11104820 	add	w0, w1, #0x412
    5ea0:	4b030083 	sub	w3, w4, w3
    5ea4:	1ac02740 	lsr	w0, w26, w0
    5ea8:	1ac322d6 	lsl	w22, w22, w3
    5eac:	2a0002c0 	orr	w0, w22, w0
    5eb0:	1e630000 	ucvtf	d0, w0
    5eb4:	52800023 	mov	w3, #0x1                   	// #1
    5eb8:	b9007ba3 	str	w3, [x29, #120]
    5ebc:	52bfc204 	mov	w4, #0xfe100000            	// #-32505856
    5ec0:	51000421 	sub	w1, w1, #0x1
    5ec4:	9e660000 	fmov	x0, d0
    5ec8:	d360fc03 	lsr	x3, x0, #32
    5ecc:	0b040063 	add	w3, w3, w4
    5ed0:	b3607c60 	bfi	x0, x3, #32, #32
    5ed4:	9e670003 	fmov	d3, x0
    5ed8:	1e6f1001 	fmov	d1, #1.500000000000000000e+000
    5edc:	5c0082e4 	ldr	d4, 6f38 <_dtoa_r+0x11a8>
    5ee0:	1e620022 	scvtf	d2, w1
    5ee4:	1e613861 	fsub	d1, d3, d1
    5ee8:	5c0082c0 	ldr	d0, 6f40 <_dtoa_r+0x11b0>
    5eec:	5c0082e3 	ldr	d3, 6f48 <_dtoa_r+0x11b8>
    5ef0:	1f440020 	fmadd	d0, d1, d4, d0
    5ef4:	1f430040 	fmadd	d0, d2, d3, d0
    5ef8:	1e602018 	fcmpe	d0, #0.0
    5efc:	1e780016 	fcvtzs	w22, d0
    5f00:	540000a5 	b.pl	5f14 <_dtoa_r+0x184>  // b.nfrst
    5f04:	1e6202c1 	scvtf	d1, w22
    5f08:	1e602020 	fcmp	d1, d0
    5f0c:	1a9f07e0 	cset	w0, ne  // ne = any
    5f10:	4b0002d6 	sub	w22, w22, w0
    5f14:	52800020 	mov	w0, #0x1                   	// #1
    5f18:	b9009ba0 	str	w0, [x29, #152]
    5f1c:	71005adf 	cmp	w22, #0x16
    5f20:	54000128 	b.hi	5f44 <_dtoa_r+0x1b4>  // b.pmore
    5f24:	90000040 	adrp	x0, d000 <__trunctfdf2+0x290>
    5f28:	910cc000 	add	x0, x0, #0x330
    5f2c:	9e670341 	fmov	d1, x26
    5f30:	fc76d800 	ldr	d0, [x0, w22, sxtw #3]
    5f34:	1e612010 	fcmpe	d0, d1
    5f38:	54002aad 	b.le	648c <_dtoa_r+0x6fc>
    5f3c:	510006d6 	sub	w22, w22, #0x1
    5f40:	b9009bbf 	str	wzr, [x29, #152]
    5f44:	4b010041 	sub	w1, w2, w1
    5f48:	52800006 	mov	w6, #0x0                   	// #0
    5f4c:	71000424 	subs	w4, w1, #0x1
    5f50:	540007e4 	b.mi	604c <_dtoa_r+0x2bc>  // b.first
    5f54:	37f828d6 	tbnz	w22, #31, 646c <_dtoa_r+0x6dc>
    5f58:	0b160084 	add	w4, w4, w22
    5f5c:	5280001c 	mov	w28, #0x0                   	// #0
    5f60:	b90093b6 	str	w22, [x29, #144]
    5f64:	710026bf 	cmp	w21, #0x9
    5f68:	54000be8 	b.hi	60e4 <_dtoa_r+0x354>  // b.pmore
    5f6c:	5280003b 	mov	w27, #0x1                   	// #1
    5f70:	710016bf 	cmp	w21, #0x5
    5f74:	5400006d 	b.le	5f80 <_dtoa_r+0x1f0>
    5f78:	510012b5 	sub	w21, w21, #0x4
    5f7c:	5280001b 	mov	w27, #0x0                   	// #0
    5f80:	71000ebf 	cmp	w21, #0x3
    5f84:	54005a20 	b.eq	6ac8 <_dtoa_r+0xd38>  // b.none
    5f88:	5400286d 	b.le	6494 <_dtoa_r+0x704>
    5f8c:	52800020 	mov	w0, #0x1                   	// #1
    5f90:	b90097a0 	str	w0, [x29, #148]
    5f94:	710012bf 	cmp	w21, #0x4
    5f98:	54000620 	b.eq	605c <_dtoa_r+0x2cc>  // b.none
    5f9c:	710016bf 	cmp	w21, #0x5
    5fa0:	54002801 	b.ne	64a0 <_dtoa_r+0x710>  // b.any
    5fa4:	b940aba0 	ldr	w0, [x29, #168]
    5fa8:	0b0002c0 	add	w0, w22, w0
    5fac:	b9007fa0 	str	w0, [x29, #124]
    5fb0:	11000400 	add	w0, w0, #0x1
    5fb4:	b900a3a0 	str	w0, [x29, #160]
    5fb8:	7100001f 	cmp	w0, #0x0
    5fbc:	1a9fc400 	csinc	w0, w0, wzr, gt
    5fc0:	1400002c 	b	6070 <_dtoa_r+0x2e0>
    5fc4:	12007816 	and	w22, w0, #0x7fffffff
    5fc8:	52800020 	mov	w0, #0x1                   	// #1
    5fcc:	b90002e0 	str	w0, [x23]
    5fd0:	120c2ac1 	and	w1, w22, #0x7ff00000
    5fd4:	b3607eda 	bfi	x26, x22, #32, #32
    5fd8:	52affe00 	mov	w0, #0x7ff00000            	// #2146435072
    5fdc:	9e670348 	fmov	d8, x26
    5fe0:	6b00003f 	cmp	w1, w0
    5fe4:	54fff181 	b.ne	5e14 <_dtoa_r+0x84>  // b.any
    5fe8:	5284e1e0 	mov	w0, #0x270f                	// #9999
    5fec:	b9000320 	str	w0, [x25]
    5ff0:	9e660100 	fmov	x0, d8
    5ff4:	f240cc1f 	tst	x0, #0xfffffffffffff
    5ff8:	540000e1 	b.ne	6014 <_dtoa_r+0x284>  // b.any
    5ffc:	90000055 	adrp	x21, d000 <__trunctfdf2+0x290>
    6000:	b4003034 	cbz	x20, 6604 <_dtoa_r+0x874>
    6004:	f0000020 	adrp	x0, d000 <__trunctfdf2+0x290>
    6008:	911622b5 	add	x21, x21, #0x588
    600c:	91164000 	add	x0, x0, #0x590
    6010:	17ffff8a 	b	5e38 <_dtoa_r+0xa8>
    6014:	f0000035 	adrp	x21, d000 <__trunctfdf2+0x290>
    6018:	b4002fb4 	cbz	x20, 660c <_dtoa_r+0x87c>
    601c:	f0000020 	adrp	x0, d000 <__trunctfdf2+0x290>
    6020:	911662b5 	add	x21, x21, #0x598
    6024:	91166c00 	add	x0, x0, #0x59b
    6028:	17ffff84 	b	5e38 <_dtoa_r+0xa8>
    602c:	9e660100 	fmov	x0, d8
    6030:	510ffc21 	sub	w1, w1, #0x3ff
    6034:	b940bba2 	ldr	w2, [x29, #184]
    6038:	b9007bbf 	str	wzr, [x29, #120]
    603c:	d360cc03 	ubfx	x3, x0, #32, #20
    6040:	320c2463 	orr	w3, w3, #0x3ff00000
    6044:	b3607c60 	bfi	x0, x3, #32, #32
    6048:	17ffffa3 	b	5ed4 <_dtoa_r+0x144>
    604c:	52800026 	mov	w6, #0x1                   	// #1
    6050:	52800004 	mov	w4, #0x0                   	// #0
    6054:	4b0100c6 	sub	w6, w6, w1
    6058:	17ffffbf 	b	5f54 <_dtoa_r+0x1c4>
    605c:	b940aba0 	ldr	w0, [x29, #168]
    6060:	7100001f 	cmp	w0, #0x0
    6064:	5400298d 	b.le	6594 <_dtoa_r+0x804>
    6068:	b9007fa0 	str	w0, [x29, #124]
    606c:	b900a3a0 	str	w0, [x29, #160]
    6070:	b940a3a1 	ldr	w1, [x29, #160]
    6074:	93407c07 	sxtw	x7, w0
    6078:	b9006a7f 	str	wzr, [x19, #104]
    607c:	7100383f 	cmp	w1, #0xe
    6080:	1a9f87e1 	cset	w1, ls  // ls = plast
    6084:	71007c1f 	cmp	w0, #0x1f
    6088:	0a01037b 	and	w27, w27, w1
    608c:	5400748d 	b.le	6f1c <_dtoa_r+0x118c>
    6090:	52800023 	mov	w3, #0x1                   	// #1
    6094:	52800082 	mov	w2, #0x4                   	// #4
    6098:	531f7842 	lsl	w2, w2, #1
    609c:	2a0303e1 	mov	w1, w3
    60a0:	11000463 	add	w3, w3, #0x1
    60a4:	93407c40 	sxtw	x0, w2
    60a8:	91007000 	add	x0, x0, #0x1c
    60ac:	eb07001f 	cmp	x0, x7
    60b0:	54ffff49 	b.ls	6098 <_dtoa_r+0x308>  // b.plast
    60b4:	b9006a61 	str	w1, [x19, #104]
    60b8:	14000016 	b	6110 <_dtoa_r+0x380>
    60bc:	f0000035 	adrp	x21, d000 <__trunctfdf2+0x290>
    60c0:	911602b5 	add	x21, x21, #0x580
    60c4:	aa1503e0 	mov	x0, x21
    60c8:	f9401bf7 	ldr	x23, [sp, #48]
    60cc:	a94153f3 	ldp	x19, x20, [sp, #16]
    60d0:	a9425bf5 	ldp	x21, x22, [sp, #32]
    60d4:	a9446bf9 	ldp	x25, x26, [sp, #64]
    60d8:	fd4033e8 	ldr	d8, [sp, #96]
    60dc:	a8cc7bfd 	ldp	x29, x30, [sp], #192
    60e0:	d65f03c0 	ret
    60e4:	52800020 	mov	w0, #0x1                   	// #1
    60e8:	5280001b 	mov	w27, #0x0                   	// #0
    60ec:	b90097a0 	str	w0, [x29, #148]
    60f0:	52800015 	mov	w21, #0x0                   	// #0
    60f4:	12800000 	mov	w0, #0xffffffff            	// #-1
    60f8:	b900a3a0 	str	w0, [x29, #160]
    60fc:	b900abbf 	str	wzr, [x29, #168]
    6100:	b940a3a0 	ldr	w0, [x29, #160]
    6104:	52800001 	mov	w1, #0x0                   	// #0
    6108:	b9006a7f 	str	wzr, [x19, #104]
    610c:	b9007fa0 	str	w0, [x29, #124]
    6110:	b90083a4 	str	w4, [x29, #128]
    6114:	aa1303e0 	mov	x0, x19
    6118:	b9008ba6 	str	w6, [x29, #136]
    611c:	940009c9 	bl	8840 <_Balloc>
    6120:	f9003260 	str	x0, [x19, #96]
    6124:	aa0003f8 	mov	x24, x0
    6128:	b94083a4 	ldr	w4, [x29, #128]
    612c:	b9408ba6 	ldr	w6, [x29, #136]
    6130:	34000b5b 	cbz	w27, 6298 <_dtoa_r+0x508>
    6134:	9e670344 	fmov	d4, x26
    6138:	710002df 	cmp	w22, #0x0
    613c:	54003b4d 	b.le	68a4 <_dtoa_r+0xb14>
    6140:	f0000021 	adrp	x1, d000 <__trunctfdf2+0x290>
    6144:	92400ec2 	and	x2, x22, #0xf
    6148:	910cc021 	add	x1, x1, #0x330
    614c:	13047ec0 	asr	w0, w22, #4
    6150:	fc627821 	ldr	d1, [x1, x2, lsl #3]
    6154:	37202140 	tbnz	w0, #4, 657c <_dtoa_r+0x7ec>
    6158:	9e670340 	fmov	d0, x26
    615c:	52800041 	mov	w1, #0x2                   	// #2
    6160:	f0000022 	adrp	x2, d000 <__trunctfdf2+0x290>
    6164:	91108042 	add	x2, x2, #0x420
    6168:	34000120 	cbz	w0, 618c <_dtoa_r+0x3fc>
    616c:	d503201f 	nop
    6170:	36000080 	tbz	w0, #0, 6180 <_dtoa_r+0x3f0>
    6174:	fd400042 	ldr	d2, [x2]
    6178:	11000421 	add	w1, w1, #0x1
    617c:	1e620821 	fmul	d1, d1, d2
    6180:	13017c00 	asr	w0, w0, #1
    6184:	91002042 	add	x2, x2, #0x8
    6188:	35ffff40 	cbnz	w0, 6170 <_dtoa_r+0x3e0>
    618c:	1e611800 	fdiv	d0, d0, d1
    6190:	b9409ba0 	ldr	w0, [x29, #152]
    6194:	34000080 	cbz	w0, 61a4 <_dtoa_r+0x414>
    6198:	1e6e1001 	fmov	d1, #1.000000000000000000e+000
    619c:	1e612010 	fcmpe	d0, d1
    61a0:	54005144 	b.mi	6bc8 <_dtoa_r+0xe38>  // b.first
    61a4:	1e620021 	scvtf	d1, w1
    61a8:	1e639002 	fmov	d2, #7.000000000000000000e+000
    61ac:	52bf9802 	mov	w2, #0xfcc00000            	// #-54525952
    61b0:	1f400821 	fmadd	d1, d1, d0, d2
